(lp0
(iRunes
SingleAttack
p1
(dp2
S'maxspeed'
p3
F1.0
sS'col'
p4
S'Red'
p5
sS'cost'
p6
I25
sS'imprints'
p7
(lp8
sS'tower'
p9
NsS'damageBonus'
p10
F1.0
sS'tempspeed'
p11
F1.0
sS'types'
p12
(lp13
S'Attack'
p14
asba.