(ilocalclasses
Tower
p0
(dp1
S'healthRegeneration'
p2
F1.0
sS'ac'
p3
I10
sS'image'
p4
NsS'costText'
p5
NsS'cost'
p6
I0
sS'outyet'
p7
I00
sS'upgrades'
p8
(lp9
S'StartingPoint'
p10
asS'speedIncrease'
p11
I0
sS'tempimage'
p12
NsS'runes'
p13
(dp14
S'Alpha'
p15
NsS'Beta'
p16
NssS'curXP'
p17
I0
sS'totLV'
p18
I0
sS'toolBarInfo'
p19
(dp20
sS'costRect'
p21
cpygame
__rect_constructor
p22
(I395
I130
I11
I21
tp23
Rp24
sS'phyDamIncrease'
p25
I0
sS'phyDamBonus'
p26
I0
sS'damBonus'
p27
I0
sS'maxXP'
p28
I10
sS'damIncrease'
p29
I0
sS'enemytarget'
p30
NsS'maxhp'
p31
I10
sS'rect'
p32
g22
(I385
I100
I30
I30
tp33
Rp34
sS'icon'
p35
(ilocalclasses
Icon
p36
(dp37
S'tower'
p38
g0
sS'base'
p39
S'Tower'
p40
sS'otherimg'
p41
Nsg32
g22
(I5
I575
I20
I20
tp42
Rp43
sS'img'
p44
NsbsS'curLV'
p45
I0
sS'baserange'
p46
I2
sS'targetTimer'
p47
I0
sb.