(lp0
(F0.05
I0
I0
I0
tp1
a(F0.05
F0.41
F-1.07
F0.03
tp2
a(F0.1
F0.44
F-1.05
F0.02
tp3
a(F0.15000000000000002
F0.45
F-1.04
F0.03
tp4
a(F0.2
F0.45
F-1.05
F0.03
tp5
a(F0.25
F0.44
F-1.1
F0.02
tp6
a(F0.3
F0.45
F-1.13
F0.02
tp7
a(F0.35
F0.46
F-1.16
F0.05
tp8
a(F0.39999999999999997
F0.47
F-1.15
F0.03
tp9
a(F0.44999999999999996
F0.46
F-1.12
F0.03
tp10
a(F0.49999999999999994
F0.43
F-1.11
F0.04
tp11
a(F0.5499999999999999
F0.43
F-1.08
F0.03
tp12
a(F0.6
F0.44
F-1.07
F0.02
tp13
a(F0.65
F0.43
F-1.09
F0.04
tp14
a(F0.7000000000000001
F0.41
F-1.08
F0.04
tp15
a(F0.7500000000000001
F0.41
F-1.04
F0.02
tp16
a(F0.8000000000000002
F0.39
F-1.03
F0.07
tp17
a(F0.8500000000000002
F0.39
F-0.97
F0.04
tp18
a(F0.9000000000000002
F0.39
F-0.95
F0.04
tp19
a(F0.9500000000000003
F0.46
F-0.93
F0.01
tp20
a(F1.0000000000000002
F0.44
F-1.01
F0.17
tp21
a(F1.0500000000000003
F0.47
F-0.94
F0.11
tp22
a(F1.1000000000000003
F0.34
F-1.04
F0.28
tp23
a(F1.1500000000000004
F0.42
F-0.9
F0.09
tp24
a(F1.2000000000000004
F0.36
F-0.9
F0.17
tp25
a(F1.2500000000000004
F0.44
F-0.85
F0.09
tp26
a(F1.3000000000000005
F0.39
F-0.83
F0.02
tp27
a(F1.3500000000000005
F0.41
F-0.82
F-0.02
tp28
a(F1.4000000000000006
F0.42
F-0.85
F0.05
tp29
a(F1.4500000000000006
F0.49
F-0.86
F0.01
tp30
a(F1.5000000000000007
F0.51
F-0.85
F0.0
tp31
a(F1.5500000000000007
F0.54
F-0.88
F0.01
tp32
a(F1.6000000000000008
F0.52
F-0.88
F0.05
tp33
a(F1.6500000000000008
F0.52
F-0.88
F0.01
tp34
a(F1.7000000000000008
F0.49
F-0.89
F0.08
tp35
a(F1.7500000000000009
F0.48
F-0.87
F0.06
tp36
a(F1.800000000000001
F0.49
F-0.84
F0.15
tp37
a(F1.850000000000001
F0.45
F-0.87
F0.13
tp38
a(F1.900000000000001
F0.48
F-0.91
F0.09
tp39
a(F1.950000000000001
F0.43
F-0.94
F0.1
tp40
a(F2.000000000000001
F0.47
F-0.93
F0.05
tp41
a(F2.0500000000000007
F0.41
F-0.92
F0.05
tp42
a(F2.1000000000000005
F0.48
F-0.94
F-0.04
tp43
a(F2.1500000000000004
F0.41
F-0.99
F0.03
tp44
a(F2.2
F0.48
F-1.01
F-0.01
tp45
a(F2.25
F0.46
F-1.07
F0.15
tp46
a(F2.3
F0.44
F-1.06
F0.12
tp47
a(F2.3499999999999996
F0.45
F-1.02
F0.09
tp48
a(F2.3999999999999995
F0.46
F-0.99
F0.06
tp49
a(F2.4499999999999993
F0.54
F-0.97
F0.05
tp50
a(F2.499999999999999
F0.61
F-0.96
F0.02
tp51
a(F2.549999999999999
F0.61
F-1.0
F0.02
tp52
a(F2.5999999999999988
F0.55
F-1.03
F0.02
tp53
a(F2.6499999999999986
F0.52
F-1.08
F0.02
tp54
a(F2.6999999999999984
I0
I0
I0
tp55
a(F2.7499999999999982
F-0.13
F1.0
F0.65
tp56
a(F2.799999999999998
F-0.14
F0.89
F0.28
tp57
a(F2.849999999999998
F-0.32
F0.82
F0.19
tp58
a(F2.8999999999999977
F-0.26
F0.59
F-0.01
tp59
a(F2.9499999999999975
F-0.0
F0.98
F-0.48
tp60
a(F2.9999999999999973
F-0.31
F1.0
F0.25
tp61
a(F3.049999999999997
F-0.3
F-0.23
F0.57
tp62
a(F3.099999999999997
F-0.44
F-0.65
F0.24
tp63
a(F3.149999999999997
F-0.59
F-0.56
F0.45
tp64
a(F3.1999999999999966
F-0.48
F-0.72
F0.36
tp65
a(F3.2499999999999964
F-0.56
F-0.6
F0.36
tp66
a(F3.2999999999999963
F-0.76
F-0.26
F0.28
tp67
a(F3.349999999999996
F-0.84
F-0.34
F0.38
tp68
a(F3.399999999999996
F-0.76
F-0.59
F0.29
tp69
a(F3.4499999999999957
F-0.76
F-0.56
F0.24
tp70
a(F3.4999999999999956
F-0.72
F-0.47
F0.28
tp71
a(F3.5499999999999954
F-0.81
F-0.48
F0.32
tp72
a(F3.599999999999995
F-0.82
F-0.24
F0.36
tp73
a(F3.649999999999995
F-0.77
F-0.67
F0.4
tp74
a(F3.699999999999995
F-0.85
F-0.77
F0.36
tp75
a(F3.7499999999999947
F-0.82
F-0.94
F0.5
tp76
a(F3.7999999999999945
F-0.61
F-0.84
F0.2
tp77
a(F3.8499999999999943
F-0.94
F-0.54
F0.16
tp78
a(F3.899999999999994
F-0.76
F-0.44
F-0.03
tp79
a(F3.949999999999994
F-0.59
F-0.06
F-0.42
tp80
a(F3.999999999999994
F-0.73
F0.12
F-0.23
tp81
a(F4.049999999999994
F-0.76
F0.38
F0.0
tp82
a(F4.099999999999993
F-0.81
F0.26
F0.12
tp83
a(F4.149999999999993
F-0.71
F0.28
F-0.24
tp84
a(F4.199999999999993
F-0.8
F0.32
F-0.03
tp85
a(F4.249999999999993
F-0.81
F0.38
F0.19
tp86
a(F4.299999999999993
F-0.93
F0.32
F0.19
tp87
a(F4.3499999999999925
F-0.81
F0.37
F0.03
tp88
a(F4.399999999999992
F-0.9
F0.36
F0.08
tp89
a(F4.449999999999992
F-0.93
F0.45
F0.22
tp90
a(F4.499999999999992
F-0.91
F0.42
F0.08
tp91
a(F4.549999999999992
F-0.88
F0.52
F0.06
tp92
a(F4.599999999999992
F-0.86
F0.58
F0.14
tp93
a(F4.6499999999999915
F-0.81
F0.6
F0.12
tp94
a(F4.699999999999991
F-0.81
F0.63
F0.11
tp95
a(F4.749999999999991
F-0.76
F0.66
F0.13
tp96
a(F4.799999999999991
F-0.75
F0.71
F0.22
tp97
a(F4.849999999999991
F-0.66
F0.71
F0.17
tp98
a(F4.899999999999991
F-0.61
F0.69
F0.2
tp99
a(F4.94999999999999
F-0.51
F0.7
F0.27
tp100
a(F4.99999999999999
F-0.4
F0.68
F0.25
tp101
a(F5.04999999999999
F-0.35
F0.7
F0.15
tp102
a(F5.09999999999999
F-0.31
F0.71
F0.13
tp103
a(F5.14999999999999
F-0.25
F0.7
F0.24
tp104
a(F5.1999999999999895
F-0.09
F0.66
F0.18
tp105
a(F5.249999999999989
F-0.1
F0.63
F0.14
tp106
a(F5.299999999999989
F-0.04
F0.61
F0.13
tp107
a(F5.349999999999989
F-0.04
F0.6
F0.17
tp108
a(F5.399999999999989
F0.03
F0.57
F0.22
tp109
a(F5.449999999999989
F0.08
F0.54
F0.18
tp110
a(F5.4999999999999885
F0.03
F0.57
F0.23
tp111
a(F5.549999999999988
F-0.04
F0.64
F0.3
tp112
a(F5.599999999999988
F-0.13
F0.67
F0.33
tp113
a(F5.649999999999988
F-0.16
F0.66
F0.35
tp114
a(F5.699999999999988
F-0.23
F0.67
F0.31
tp115
a(F5.749999999999988
F-0.28
F0.72
F0.25
tp116
a(F5.799999999999987
F-0.25
F0.77
F0.23
tp117
a(F5.849999999999987
F-0.31
F0.75
F0.22
tp118
a(F5.899999999999987
F-0.37
F0.71
F0.24
tp119
a(F5.949999999999987
F-0.4
F0.74
F0.11
tp120
a(F5.999999999999987
F-0.44
F0.69
F0.23
tp121
a(F6.0499999999999865
F-0.43
F0.78
F0.05
tp122
a(F6.099999999999986
F-0.48
F0.69
F0.0
tp123
a(F6.149999999999986
F-0.6
F0.67
F0.01
tp124
a(F6.199999999999986
F-0.56
F0.69
F-0.11
tp125
a(F6.249999999999986
F-0.61
F0.68
F0.05
tp126
a(F6.299999999999986
F-0.65
F0.67
F0.11
tp127
a(F6.349999999999985
F-0.69
F0.62
F0.11
tp128
a(F6.399999999999985
F-0.68
F0.65
F0.06
tp129
a(F6.449999999999985
F-0.71
F0.61
F0.04
tp130
a(F6.499999999999985
F-0.75
F0.59
F0.07
tp131
a(F6.549999999999985
F-0.75
F0.53
F-0.01
tp132
a(F6.5999999999999845
F-0.77
F0.53
F0.03
tp133
a(F6.649999999999984
F-0.8
F0.5
F0.05
tp134
a(F6.699999999999984
F-0.73
F0.46
F-0.04
tp135
a(F6.749999999999984
F-0.73
F0.49
F0.09
tp136
a(F6.799999999999984
F-0.72
F0.3
F0.08
tp137
a(F6.849999999999984
F-0.68
F0.19
F0.46
tp138
a(F6.8999999999999835
F-0.66
F0.34
F0.59
tp139
a(F6.949999999999983
F-0.71
F0.27
F0.61
tp140
a(F6.999999999999983
F-0.7
F0.29
F0.74
tp141
a(F7.049999999999983
F-0.72
F0.27
F0.74
tp142
a(F7.099999999999983
F-0.71
F0.24
F0.66
tp143
a(F7.149999999999983
F-0.69
F0.31
F0.72
tp144
a(F7.199999999999982
F-0.66
F0.32
F0.67
tp145
a(F7.249999999999982
F-0.69
F0.31
F0.73
tp146
a(F7.299999999999982
F-0.68
F0.32
F0.73
tp147
a(F7.349999999999982
F-0.66
F0.35
F0.75
tp148
a(F7.399999999999982
F-0.66
F0.32
F0.75
tp149
a(F7.4499999999999815
F-0.63
F0.3
F0.72
tp150
a(F7.499999999999981
F-0.64
F0.37
F0.79
tp151
a(F7.549999999999981
F-0.61
F0.38
F0.83
tp152
a(F7.599999999999981
F-0.59
F0.37
F0.77
tp153
a(F7.649999999999981
F-0.51
F0.37
F0.72
tp154
a(F7.699999999999981
F-0.47
F0.4
F0.74
tp155
a(F7.7499999999999805
F-0.4
F0.38
F0.73
tp156
a(F7.79999999999998
F-0.37
F0.44
F0.75
tp157
a(F7.84999999999998
F-0.31
F0.45
F0.74
tp158
a(F7.89999999999998
F-0.26
F0.49
F0.75
tp159
a(F7.94999999999998
F-0.2
F0.49
F0.77
tp160
a(F7.99999999999998
F-0.12
F0.48
F0.77
tp161
a(F8.04999999999998
F-0.07
F0.49
F0.81
tp162
a(F8.09999999999998
F0.0
F0.46
F0.74
tp163
a(F8.14999999999998
F0.04
F0.46
F0.71
tp164
a(F8.199999999999982
F0.09
F0.49
F0.68
tp165
a(F8.249999999999982
F0.16
F0.5
F0.68
tp166
a(F8.299999999999983
F0.19
F0.47
F0.66
tp167
a(F8.349999999999984
F0.24
F0.47
F0.61
tp168
a(F8.399999999999984
F0.26
F0.48
F0.62
tp169
a(F8.449999999999985
F0.28
F0.42
F0.53
tp170
a(F8.499999999999986
F0.28
F0.45
F0.5
tp171
a(F8.549999999999986
F0.3
F0.46
F0.54
tp172
a(F8.599999999999987
F0.28
F0.49
F0.57
tp173
a(F8.649999999999988
F0.27
F0.52
F0.6
tp174
a(F8.699999999999989
F0.24
F0.54
F0.67
tp175
a(F8.74999999999999
F0.23
F0.55
F0.73
tp176
a(F8.79999999999999
F0.21
F0.59
F0.67
tp177
a(F8.84999999999999
F0.17
F0.54
F0.71
tp178
a(F8.899999999999991
F0.12
F0.54
F0.72
tp179
a(F8.949999999999992
F0.1
F0.55
F0.73
tp180
a(F8.999999999999993
F0.03
F0.56
F0.76
tp181
a(F9.049999999999994
F-0.03
F0.56
F0.78
tp182
a(F9.099999999999994
F-0.02
F0.53
F0.75
tp183
a(F9.149999999999995
F-0.11
F0.6
F0.78
tp184
a(F9.199999999999996
F-0.15
F0.59
F0.69
tp185
a(F9.249999999999996
F-0.12
F0.61
F0.7
tp186
a(F9.299999999999997
F-0.21
F0.64
F0.79
tp187
a(F9.349999999999998
F-0.24
F0.61
F0.68
tp188
a(F9.399999999999999
F-0.29
F0.53
F0.68
tp189
a(F9.45
F-0.26
F0.54
F0.69
tp190
a(F9.5
F-0.29
F0.61
F0.69
tp191
a(F9.55
F-0.29
F0.59
F0.68
tp192
a(F9.600000000000001
F-0.34
F0.54
F0.66
tp193
a(F9.650000000000002
F-0.37
F0.51
F0.66
tp194
a(F9.700000000000003
F-0.38
F0.43
F0.58
tp195
a(F9.750000000000004
F-0.41
F0.47
F0.6
tp196
a(F9.800000000000004
F-0.39
F0.45
F0.56
tp197
a(F9.850000000000005
F-0.48
F0.44
F0.74
tp198
a(F9.900000000000006
F-0.45
F0.44
F0.72
tp199
a(F9.950000000000006
F-0.48
F0.39
F0.8
tp200
a(F10.000000000000007
F-0.49
F0.34
F0.7
tp201
a(F10.050000000000008
F-0.45
F0.35
F0.74
tp202
a(F10.100000000000009
F-0.48
F0.36
F0.79
tp203
a(F10.15000000000001
F-0.46
F0.34
F0.77
tp204
a(F10.20000000000001
F-0.48
F0.35
F0.81
tp205
a(F10.25000000000001
F-0.48
F0.35
F0.75
tp206
a(F10.300000000000011
F-0.5
F0.35
F0.8
tp207
a(F10.350000000000012
F-0.51
F0.35
F0.82
tp208
a(F10.400000000000013
F-0.49
F0.38
F0.84
tp209
a(F10.450000000000014
F-0.46
F0.42
F0.86
tp210
a(F10.500000000000014
F-0.43
F0.45
F0.91
tp211
a(F10.550000000000015
F-0.43
F0.45
F0.91
tp212
a(F10.600000000000016
F-0.42
F0.45
F0.9
tp213
a(F10.650000000000016
F-0.42
F0.45
F0.93
tp214
a(F10.700000000000017
F-0.39
F0.46
F0.89
tp215
a(F10.750000000000018
F-0.39
F0.49
F0.9
tp216
a(F10.800000000000018
F-0.32
F0.5
F0.91
tp217
a(F10.85000000000002
F-0.29
F0.51
F0.93
tp218
a(F10.90000000000002
F-0.25
F0.49
F0.85
tp219
a(F10.95000000000002
F-0.2
F0.53
F0.8
tp220
a(F11.000000000000021
F-0.16
F0.57
F0.79
tp221
a(F11.050000000000022
F-0.08
F0.59
F0.77
tp222
a(F11.100000000000023
F-0.01
F0.59
F0.78
tp223
a(F11.150000000000023
F0.04
F0.55
F0.71
tp224
a(F11.200000000000024
F0.12
F0.55
F0.63
tp225
a(F11.250000000000025
F0.14
F0.55
F0.66
tp226
a(F11.300000000000026
F0.17
F0.51
F0.63
tp227
a(F11.350000000000026
F0.21
F0.51
F0.62
tp228
a(F11.400000000000027
F0.29
F0.5
F0.52
tp229
a(F11.450000000000028
F0.31
F0.51
F0.52
tp230
a(F11.500000000000028
F0.32
F0.51
F0.45
tp231
a(F11.55000000000003
F0.33
F0.55
F0.51
tp232
a(F11.60000000000003
F0.33
F0.58
F0.57
tp233
a(F11.65000000000003
F0.36
F0.56
F0.53
tp234
a(F11.700000000000031
F0.34
F0.55
F0.54
tp235
a(F11.750000000000032
F0.35
F0.54
F0.53
tp236
a(F11.800000000000033
F0.32
F0.54
F0.6
tp237
a(F11.850000000000033
F0.32
F0.51
F0.59
tp238
a(F11.900000000000034
F0.28
F0.5
F0.61
tp239
a(F11.950000000000035
F0.22
F0.49
F0.66
tp240
a(F12.000000000000036
F0.24
F0.49
F0.67
tp241
a(F12.050000000000036
F0.21
F0.51
F0.73
tp242
a(F12.100000000000037
F0.15
F0.49
F0.67
tp243
a(F12.150000000000038
F0.13
F0.48
F0.63
tp244
a(F12.200000000000038
F0.09
F0.5
F0.76
tp245
a(F12.250000000000039
F0.05
F0.47
F0.74
tp246
a(F12.30000000000004
F-0.01
F0.5
F0.83
tp247
a(F12.35000000000004
F-0.05
F0.53
F0.83
tp248
a(F12.400000000000041
F-0.1
F0.46
F0.77
tp249
a(F12.450000000000042
F-0.17
F0.5
F0.89
tp250
a(F12.500000000000043
F-0.17
F0.51
F0.93
tp251
a(F12.550000000000043
F-0.2
F0.45
F0.91
tp252
a(F12.600000000000044
F-0.24
F0.46
F0.91
tp253
a(F12.650000000000045
F-0.26
F0.46
F0.86
tp254
a(F12.700000000000045
F-0.3
F0.47
F0.92
tp255
a(F12.750000000000046
F-0.34
F0.45
F0.92
tp256
a(F12.800000000000047
F-0.37
F0.4
F0.87
tp257
a(F12.850000000000048
F-0.43
F0.41
F0.87
tp258
a(F12.900000000000048
F-0.4
F0.38
F0.85
tp259
a(F12.950000000000049
F-0.41
F0.38
F0.83
tp260
a(F13.00000000000005
F-0.41
F0.33
F0.8
tp261
a(F13.05000000000005
F-0.42
F0.33
F0.85
tp262
a(F13.100000000000051
F-0.43
F0.34
F0.86
tp263
a(F13.150000000000052
F-0.43
F0.33
F0.82
tp264
a(F13.200000000000053
F-0.44
F0.34
F0.85
tp265
a(F13.250000000000053
F-0.43
F0.36
F0.86
tp266
a(F13.300000000000054
F-0.42
F0.37
F0.89
tp267
a(F13.350000000000055
F-0.42
F0.38
F0.91
tp268
a(F13.400000000000055
F-0.41
F0.41
F0.92
tp269
a(F13.450000000000056
F-0.41
F0.42
F0.95
tp270
a(F13.500000000000057
F-0.39
F0.44
F0.94
tp271
a(F13.550000000000058
F-0.36
F0.46
F0.94
tp272
a(F13.600000000000058
F-0.37
F0.48
F0.95
tp273
a(F13.650000000000059
F-0.33
F0.47
F0.94
tp274
a(F13.70000000000006
F-0.32
F0.48
F0.89
tp275
a(F13.75000000000006
F-0.27
F0.45
F0.82
tp276
a(F13.800000000000061
F-0.21
F0.47
F0.84
tp277
a(F13.850000000000062
F-0.16
F0.49
F0.81
tp278
a(F13.900000000000063
F-0.11
F0.5
F0.79
tp279
a(F13.950000000000063
F-0.06
F0.52
F0.75
tp280
a(F14.000000000000064
F-0.01
F0.55
F0.76
tp281
a(F14.050000000000065
F0.05
F0.55
F0.7
tp282
a(F14.100000000000065
F0.09
F0.57
F0.66
tp283
a(F14.150000000000066
F0.13
F0.55
F0.61
tp284
a(F14.200000000000067
F0.18
F0.57
F0.57
tp285
a(F14.250000000000068
F0.19
F0.63
F0.58
tp286
a(F14.300000000000068
F0.24
F0.62
F0.54
tp287
a(F14.350000000000069
F0.26
F0.64
F0.55
tp288
a(F14.40000000000007
F0.3
F0.64
F0.52
tp289
a(F14.45000000000007
F0.29
F0.66
F0.56
tp290
a(F14.500000000000071
F0.31
F0.65
F0.52
tp291
a(F14.550000000000072
F0.32
F0.65
F0.52
tp292
a(F14.600000000000072
F0.32
F0.61
F0.48
tp293
a(F14.650000000000073
F0.31
F0.63
F0.5
tp294
a(F14.700000000000074
F0.32
F0.64
F0.52
tp295
a(F14.750000000000075
F0.3
F0.65
F0.53
tp296
a(F14.800000000000075
F0.27
F0.66
F0.55
tp297
a(F14.850000000000076
F0.28
F0.65
F0.56
tp298
a(F14.900000000000077
F0.24
F0.62
F0.56
tp299
a(F14.950000000000077
F0.23
F0.57
F0.51
tp300
a(F15.000000000000078
F0.22
F0.58
F0.51
tp301
a(F15.050000000000079
F0.14
F0.59
F0.59
tp302
a(F15.10000000000008
F0.09
F0.64
F0.6
tp303
a(F15.15000000000008
F0.01
F0.61
F0.63
tp304
a(F15.200000000000081
F0.05
F0.64
F0.69
tp305
a(F15.250000000000082
F0.02
F0.64
F0.65
tp306
a(F15.300000000000082
F-0.07
F0.61
F0.7
tp307
a(F15.350000000000083
F-0.14
F0.63
F0.75
tp308
a(F15.400000000000084
F-0.18
F0.61
F0.64
tp309
a(F15.450000000000085
F-0.24
F0.58
F0.72
tp310
a(F15.500000000000085
F-0.23
F0.58
F0.83
tp311
a(F15.550000000000086
F-0.25
F0.61
F0.83
tp312
a(F15.600000000000087
F-0.31
F0.6
F0.78
tp313
a(F15.650000000000087
F-0.37
F0.58
F0.71
tp314
a(F15.700000000000088
F-0.38
F0.52
F0.75
tp315
a(F15.750000000000089
F-0.37
F0.54
F0.83
tp316
a(F15.80000000000009
F-0.39
F0.53
F0.84
tp317
a(F15.85000000000009
F-0.4
F0.52
F0.79
tp318
a(F15.900000000000091
F-0.43
F0.55
F0.81
tp319
a(F15.950000000000092
F-0.41
F0.53
F0.76
tp320
a(F16.000000000000092
F-0.42
F0.52
F0.78
tp321
a(F16.050000000000093
F-0.41
F0.55
F0.8
tp322
a(F16.100000000000094
F-0.42
F0.54
F0.82
tp323
a(F16.150000000000095
F-0.4
F0.54
F0.82
tp324
a(F16.200000000000095
F-0.4
F0.55
F0.83
tp325
a(F16.250000000000096
F-0.37
F0.52
F0.81
tp326
a(F16.300000000000097
F-0.36
F0.53
F0.85
tp327
a(F16.350000000000097
F-0.33
F0.57
F0.84
tp328
a(F16.400000000000098
F-0.35
F0.61
F0.85
tp329
a(F16.4500000000001
F-0.31
F0.6
F0.83
tp330
a(F16.5000000000001
F-0.29
F0.62
F0.84
tp331
a(F16.5500000000001
F-0.27
F0.61
F0.79
tp332
a(F16.6000000000001
F-0.24
F0.63
F0.75
tp333
a(F16.6500000000001
F-0.2
F0.64
F0.73
tp334
a(F16.700000000000102
F-0.15
F0.69
F0.7
tp335
a(F16.750000000000103
F-0.1
F0.7
F0.69
tp336
a(F16.800000000000104
F-0.03
F0.69
F0.72
tp337
a(F16.850000000000104
F0.05
F0.67
F0.68
tp338
a(F16.900000000000105
F0.04
F0.61
F0.68
tp339
a(F16.950000000000106
F0.11
F0.6
F0.59
tp340
a(F17.000000000000107
F0.18
F0.58
F0.5
tp341
a(F17.050000000000107
F0.17
F0.58
F0.55
tp342
a(F17.100000000000108
F0.26
F0.55
F0.45
tp343
a(F17.15000000000011
F0.28
F0.55
F0.45
tp344
a(F17.20000000000011
F0.31
F0.52
F0.36
tp345
a(F17.25000000000011
F0.3
F0.51
F0.33
tp346
a(F17.30000000000011
F0.32
F0.53
F0.38
tp347
a(F17.35000000000011
F0.31
F0.59
F0.5
tp348
a(F17.400000000000112
F0.31
F0.65
F0.53
tp349
a(F17.450000000000113
F0.28
F0.61
F0.52
tp350
a(F17.500000000000114
F0.23
F0.62
F0.54
tp351
a(F17.550000000000114
F0.23
F0.61
F0.55
tp352
a(F17.600000000000115
F0.21
F0.63
F0.62
tp353
a(F17.650000000000116
F0.18
F0.62
F0.6
tp354
a(F17.700000000000117
F0.14
F0.62
F0.64
tp355
a(F17.750000000000117
F0.12
F0.64
F0.68
tp356
a(F17.800000000000118
F0.06
F0.64
F0.72
tp357
a(F17.85000000000012
F0.02
F0.65
F0.71
tp358
a(F17.90000000000012
F-0.04
F0.64
F0.71
tp359
a(F17.95000000000012
F-0.06
F0.65
F0.73
tp360
a(F18.00000000000012
F-0.07
F0.64
F0.72
tp361
a(F18.05000000000012
F-0.11
F0.68
F0.74
tp362
a(F18.100000000000122
F-0.16
F0.69
F0.78
tp363
a(F18.150000000000123
F-0.17
F0.63
F0.73
tp364
a(F18.200000000000124
F-0.17
F0.62
F0.78
tp365
a(F18.250000000000124
F-0.18
F0.64
F0.77
tp366
a(F18.300000000000125
F-0.21
F0.62
F0.76
tp367
a(F18.350000000000126
F-0.25
F0.64
F0.73
tp368
a(F18.400000000000126
F-0.26
F0.66
F0.73
tp369
a(F18.450000000000127
F-0.29
F0.7
F0.77
tp370
a(F18.500000000000128
F-0.27
F0.71
F0.8
tp371
a(F18.55000000000013
F-0.26
F0.68
F0.81
tp372
a(F18.60000000000013
F-0.25
F0.67
F0.86
tp373
a(F18.65000000000013
F-0.25
F0.67
F0.84
tp374
a(F18.70000000000013
F-0.25
F0.66
F0.87
tp375
a(F18.75000000000013
F-0.26
F0.65
F0.85
tp376
a(F18.800000000000132
F-0.23
F0.66
F0.82
tp377
a(F18.850000000000133
F-0.21
F0.65
F0.77
tp378
a(F18.900000000000134
F-0.15
F0.67
F0.76
tp379
a(F18.950000000000134
F-0.11
F0.68
F0.75
tp380
a(F19.000000000000135
F-0.07
F0.68
F0.7
tp381
a(F19.050000000000136
F-0.04
F0.66
F0.64
tp382
a(F19.100000000000136
F-0.02
F0.66
F0.63
tp383
a(F19.150000000000137
F0.03
F0.65
F0.55
tp384
a(F19.200000000000138
F-0.06
F0.61
F0.7
tp385
a(F19.25000000000014
F0.01
F0.6
F0.61
tp386
a(F19.30000000000014
F0.01
F0.59
F0.63
tp387
a(F19.35000000000014
F0.02
F0.56
F0.63
tp388
a(F19.40000000000014
F0.06
F0.59
F0.67
tp389
a(F19.45000000000014
F0.08
F0.59
F0.62
tp390
a(F19.500000000000142
F0.08
F0.59
F0.64
tp391
a(F19.550000000000143
F0.1
F0.59
F0.6
tp392
a(F19.600000000000144
F0.09
F0.58
F0.59
tp393
a(F19.650000000000144
F0.13
F0.55
F0.51
tp394
a(F19.700000000000145
F0.12
F0.53
F0.54
tp395
a(F19.750000000000146
F0.1
F0.5
F0.5
tp396
a(F19.800000000000146
F0.11
F0.51
F0.47
tp397
a(F19.850000000000147
F0.03
F0.56
F0.57
tp398
a(F19.900000000000148
F0.06
F0.5
F0.54
tp399
a(F19.95000000000015
F0.04
F0.57
F0.65
tp400
a(F20.00000000000015
F-0.02
F0.56
F0.69
tp401
a(F20.05000000000015
F0.0
F0.63
F0.72
tp402
a(F20.10000000000015
F0.01
F0.59
F0.69
tp403
a(F20.15000000000015
F-0.08
F0.6
F0.73
tp404
a(F20.200000000000152
F-0.12
F0.62
F0.77
tp405
a(F20.250000000000153
F-0.11
F0.66
F0.75
tp406
a(F20.300000000000153
F-0.16
F0.61
F0.76
tp407
a(F20.350000000000154
F-0.15
F0.59
F0.75
tp408
a(F20.400000000000155
F-0.17
F0.6
F0.79
tp409
a(F20.450000000000156
F-0.19
F0.66
F0.8
tp410
a(F20.500000000000156
F-0.2
F0.69
F0.81
tp411
a(F20.550000000000157
F-0.19
F0.68
F0.8
tp412
a(F20.600000000000158
F-0.18
F0.69
F0.83
tp413
a(F20.65000000000016
F-0.18
F0.68
F0.87
tp414
a(F20.70000000000016
F-0.19
F0.68
F0.87
tp415
a(F20.75000000000016
F-0.19
F0.66
F0.86
tp416
a(F20.80000000000016
F-0.21
F0.67
F0.87
tp417
a(F20.85000000000016
F-0.21
F0.7
F0.9
tp418
a(F20.900000000000162
F-0.21
F0.71
F0.89
tp419
a(F20.950000000000163
F-0.21
F0.7
F0.86
tp420
a(F21.000000000000163
F-0.18
F0.71
F0.85
tp421
a(F21.050000000000164
F-0.12
F0.69
F0.83
tp422
a(F21.100000000000165
F-0.11
F0.69
F0.87
tp423
a(F21.150000000000166
F-0.06
F0.65
F0.81
tp424
a(F21.200000000000166
F-0.01
F0.65
F0.81
tp425
a(F21.250000000000167
F0.03
F0.61
F0.73
tp426
a(F21.300000000000168
F0.06
F0.63
F0.7
tp427
a(F21.35000000000017
F0.1
F0.63
F0.61
tp428
a(F21.40000000000017
F0.13
F0.6
F0.54
tp429
a(F21.45000000000017
F0.13
F0.61
F0.57
tp430
a(F21.50000000000017
F0.2
F0.61
F0.54
tp431
a(F21.55000000000017
F0.23
F0.59
F0.55
tp432
a(F21.600000000000172
F0.24
F0.59
F0.56
tp433
a(F21.650000000000173
F0.24
F0.58
F0.53
tp434
a(F21.700000000000173
F0.22
F0.56
F0.56
tp435
a(F21.750000000000174
F0.28
F0.61
F0.53
tp436
a(F21.800000000000175
F0.23
F0.67
F0.57
tp437
a(F21.850000000000176
F0.27
F0.65
F0.52
tp438
a(F21.900000000000176
F0.28
F0.66
F0.53
tp439
a(F21.950000000000177
F0.27
F0.62
F0.45
tp440
a(F22.000000000000178
F0.27
F0.63
F0.52
tp441
a(F22.05000000000018
F0.25
F0.62
F0.5
tp442
a(F22.10000000000018
F0.24
F0.63
F0.51
tp443
a(F22.15000000000018
F0.2
F0.6
F0.57
tp444
a(F22.20000000000018
F0.17
F0.61
F0.53
tp445
a(F22.25000000000018
F0.21
F0.61
F0.5
tp446
a(F22.300000000000182
F0.12
F0.67
F0.64
tp447
a(F22.350000000000183
F0.05
F0.65
F0.61
tp448
a(F22.400000000000183
F0.07
F0.68
F0.64
tp449
a(F22.450000000000184
F-0.01
F0.69
F0.72
tp450
a(F22.500000000000185
F-0.06
F0.69
F0.72
tp451
a(F22.550000000000185
F-0.08
F0.65
F0.7
tp452
a(F22.600000000000186
F-0.04
F0.61
F0.71
tp453
a(F22.650000000000187
F-0.11
F0.64
F0.82
tp454
a(F22.700000000000188
F-0.15
F0.68
F0.75
tp455
a(F22.75000000000019
F-0.16
F0.72
F0.81
tp456
a(F22.80000000000019
F-0.16
F0.69
F0.8
tp457
a(F22.85000000000019
F-0.2
F0.73
F0.84
tp458
a(F22.90000000000019
F-0.21
F0.71
F0.85
tp459
a(F22.95000000000019
F-0.2
F0.77
F0.95
tp460
a(F23.000000000000192
F-0.22
F0.77
F0.99
tp461
a(F23.050000000000193
F-0.21
F0.74
F0.95
tp462
a(F23.100000000000193
F-0.2
F0.73
F0.92
tp463
a(F23.150000000000194
F-0.2
F0.69
F0.86
tp464
a(F23.200000000000195
F-0.19
F0.66
F0.81
tp465
a(F23.250000000000195
F-0.18
F0.66
F0.79
tp466
a(F23.300000000000196
F-0.16
F0.68
F0.77
tp467
a(F23.350000000000197
F-0.12
F0.69
F0.74
tp468
a(F23.400000000000198
F-0.09
F0.72
F0.75
tp469
a(F23.4500000000002
F-0.05
F0.71
F0.71
tp470
a(F23.5000000000002
F0.01
F0.67
F0.67
tp471
a(F23.5500000000002
F0.1
F0.64
F0.61
tp472
a(F23.6000000000002
F0.12
F0.63
F0.62
tp473
a(F23.6500000000002
F0.14
F0.61
F0.63
tp474
a(F23.700000000000202
F0.19
F0.61
F0.59
tp475
a(F23.750000000000203
F0.22
F0.64
F0.57
tp476
a(F23.800000000000203
F0.18
F0.64
F0.57
tp477
a(F23.850000000000204
F0.16
F0.63
F0.53
tp478
a(F23.900000000000205
F0.23
F0.64
F0.45
tp479
a(F23.950000000000205
F0.25
F0.63
F0.42
tp480
a(F24.000000000000206
F0.28
F0.59
F0.39
tp481
a(F24.050000000000207
F0.27
F0.59
F0.42
tp482
a(F24.100000000000207
F0.27
F0.59
F0.41
tp483
a(F24.150000000000208
F0.27
F0.63
F0.46
tp484
a(F24.20000000000021
F0.24
F0.6
F0.45
tp485
a(F24.25000000000021
F0.2
F0.63
F0.52
tp486
a(F24.30000000000021
F0.22
F0.62
F0.5
tp487
a(F24.35000000000021
F0.17
F0.56
F0.57
tp488
a(F24.40000000000021
F0.12
F0.56
F0.59
tp489
a(F24.450000000000212
F0.13
F0.56
F0.58
tp490
a(F24.500000000000213
F0.03
F0.58
F0.71
tp491
a(F24.550000000000214
F0.04
F0.6
F0.65
tp492
a(F24.600000000000215
F-0.06
F0.52
F0.65
tp493
a(F24.650000000000215
F-0.09
F0.51
F0.67
tp494
a(F24.700000000000216
F-0.08
F0.54
F0.71
tp495
a(F24.750000000000217
F-0.16
F0.57
F0.74
tp496
a(F24.800000000000217
F-0.22
F0.57
F0.78
tp497
a(F24.850000000000218
F-0.22
F0.61
F0.8
tp498
a(F24.90000000000022
F-0.29
F0.62
F0.81
tp499
a(F24.95000000000022
F-0.25
F0.62
F0.77
tp500
a(F25.00000000000022
F-0.31
F0.66
F0.82
tp501
a(F25.05000000000022
F-0.3
F0.61
F0.81
tp502
a(F25.10000000000022
F-0.36
F0.62
F0.83
tp503
a(F25.150000000000222
F-0.35
F0.57
F0.81
tp504
a(F25.200000000000223
F-0.38
F0.52
F0.82
tp505
a(F25.250000000000224
F-0.4
F0.51
F0.83
tp506
a(F25.300000000000225
F-0.42
F0.5
F0.77
tp507
a(F25.350000000000225
F-0.42
F0.52
F0.83
tp508
a(F25.400000000000226
F-0.46
F0.52
F0.78
tp509
a(F25.450000000000227
F-0.47
F0.51
F0.77
tp510
a(F25.500000000000227
F-0.46
F0.55
F0.81
tp511
a(F25.550000000000228
F-0.48
F0.56
F0.79
tp512
a(F25.60000000000023
F-0.47
F0.54
F0.79
tp513
a(F25.65000000000023
F-0.45
F0.54
F0.8
tp514
a(F25.70000000000023
F-0.42
F0.55
F0.81
tp515
a(F25.75000000000023
F-0.42
F0.57
F0.84
tp516
a(F25.80000000000023
F-0.42
F0.58
F0.8
tp517
a(F25.850000000000232
F-0.43
F0.62
F0.84
tp518
a(F25.900000000000233
F-0.38
F0.62
F0.84
tp519
a(F25.950000000000234
F-0.34
F0.62
F0.85
tp520
a(F26.000000000000234
F-0.32
F0.6
F0.75
tp521
a(F26.050000000000235
F-0.27
F0.62
F0.71
tp522
a(F26.100000000000236
F-0.23
F0.63
F0.7
tp523
a(F26.150000000000237
F-0.15
F0.63
F0.66
tp524
a(F26.200000000000237
F-0.09
F0.66
F0.68
tp525
a(F26.250000000000238
F-0.08
F0.65
F0.71
tp526
a(F26.30000000000024
F-0.01
F0.63
F0.73
tp527
a(F26.35000000000024
F0.04
F0.62
F0.65
tp528
a(F26.40000000000024
F0.01
F0.62
F0.66
tp529
a(F26.45000000000024
F0.07
F0.61
F0.57
tp530
a(F26.50000000000024
F0.08
F0.59
F0.56
tp531
a(F26.550000000000242
F0.16
F0.56
F0.49
tp532
a(F26.600000000000243
F0.15
F0.56
F0.56
tp533
a(F26.650000000000244
F0.2
F0.55
F0.56
tp534
a(F26.700000000000244
F0.26
F0.48
F0.48
tp535
a(F26.750000000000245
F0.22
F0.48
F0.55
tp536
a(F26.800000000000246
F0.27
F0.52
F0.51
tp537
a(F26.850000000000247
F0.23
F0.57
F0.52
tp538
a(F26.900000000000247
F0.26
F0.57
F0.49
tp539
a(F26.950000000000248
F0.21
F0.58
F0.54
tp540
a(F27.00000000000025
F0.2
F0.56
F0.49
tp541
a(F27.05000000000025
F0.17
F0.55
F0.58
tp542
a(F27.10000000000025
F0.15
F0.57
F0.69
tp543
a(F27.15000000000025
F0.09
F0.58
F0.71
tp544
a(F27.20000000000025
F0.05
F0.55
F0.75
tp545
a(F27.250000000000252
F0.06
F0.52
F0.72
tp546
a(F27.300000000000253
F0.01
F0.59
F0.75
tp547
a(F27.350000000000254
F-0.04
F0.59
F0.65
tp548
a(F27.400000000000254
F-0.1
F0.59
F0.67
tp549
a(F27.450000000000255
F-0.16
F0.61
F0.64
tp550
a(F27.500000000000256
F-0.17
F0.61
F0.65
tp551
a(F27.550000000000257
F-0.22
F0.63
F0.7
tp552
a(F27.600000000000257
F-0.24
F0.64
F0.73
tp553
a(F27.650000000000258
F-0.31
F0.69
F0.78
tp554
a(F27.70000000000026
F-0.33
F0.65
F0.74
tp555
a(F27.75000000000026
F-0.36
F0.69
F0.81
tp556
a(F27.80000000000026
F-0.36
F0.62
F0.73
tp557
a(F27.85000000000026
F-0.38
F0.6
F0.73
tp558
a(F27.90000000000026
F-0.41
F0.63
F0.75
tp559
a(F27.950000000000262
F-0.42
F0.64
F0.73
tp560
a(F28.000000000000263
F-0.41
F0.66
F0.76
tp561
a(F28.050000000000264
F-0.41
F0.67
F0.78
tp562
a(F28.100000000000264
F-0.42
F0.7
F0.81
tp563
a(F28.150000000000265
F-0.4
F0.66
F0.78
tp564
a(F28.200000000000266
F-0.4
F0.65
F0.76
tp565
a(F28.250000000000266
F-0.37
F0.65
F0.77
tp566
a(F28.300000000000267
F-0.34
F0.66
F0.81
tp567
a(F28.350000000000268
F-0.34
F0.68
F0.82
tp568
a(F28.40000000000027
F-0.3
F0.69
F0.77
tp569
a(F28.45000000000027
F-0.26
F0.68
F0.73
tp570
a(F28.50000000000027
F-0.21
F0.63
F0.69
tp571
a(F28.55000000000027
F-0.17
F0.63
F0.7
tp572
a(F28.60000000000027
F-0.11
F0.64
F0.67
tp573
a(F28.650000000000272
F-0.09
F0.63
F0.67
tp574
a(F28.700000000000273
F-0.03
F0.63
F0.6
tp575
a(F28.750000000000274
F0.04
F0.67
F0.54
tp576
a(F28.800000000000274
F0.08
F0.68
F0.53
tp577
a(F28.850000000000275
F0.16
F0.69
F0.49
tp578
a(F28.900000000000276
F0.2
F0.7
F0.48
tp579
a(F28.950000000000276
F0.27
F0.65
F0.42
tp580
a(F29.000000000000277
F0.28
F0.63
F0.48
tp581
a(F29.050000000000278
F0.28
F0.57
F0.46
tp582
a(F29.10000000000028
F0.24
F0.59
F0.47
tp583
a(F29.15000000000028
F0.28
F0.53
F0.4
tp584
a(F29.20000000000028
F0.32
F0.52
F0.39
tp585
a(F29.25000000000028
F0.31
F0.54
F0.4
tp586
a(F29.30000000000028
F0.27
F0.55
F0.45
tp587
a(F29.350000000000282
F0.25
F0.53
F0.46
tp588
a(F29.400000000000283
F0.23
F0.52
F0.5
tp589
a(F29.450000000000284
F0.15
F0.56
F0.61
tp590
a(F29.500000000000284
F0.11
F0.58
F0.6
tp591
a(F29.550000000000285
F0.08
F0.57
F0.65
tp592
a(F29.600000000000286
F-0.0
F0.59
F0.71
tp593
a(F29.650000000000286
F-0.03
F0.6
F0.74
tp594
a(F29.700000000000287
F-0.08
F0.63
F0.79
tp595
a(F29.750000000000288
F-0.12
F0.58
F0.7
tp596
a(F29.80000000000029
F-0.21
F0.57
F0.74
tp597
a(F29.85000000000029
F-0.16
F0.64
F0.7
tp598
a(F29.90000000000029
F-0.25
F0.64
F0.67
tp599
a(F29.95000000000029
F-0.33
F0.62
F0.67
tp600
a(F30.00000000000029
F-0.34
F0.57
F0.71
tp601
a(F30.050000000000292
F-0.35
F0.55
F0.72
tp602
a(F30.100000000000293
F-0.41
F0.5
F0.68
tp603
a(F30.150000000000293
F-0.47
F0.51
F0.72
tp604
a(F30.200000000000294
F-0.46
F0.45
F0.67
tp605
a(F30.250000000000295
F-0.49
F0.52
F0.75
tp606
a(F30.300000000000296
F-0.46
F0.48
F0.64
tp607
a(F30.350000000000296
F-0.53
F0.51
F0.68
tp608
a(F30.400000000000297
F-0.51
F0.49
F0.65
tp609
a(F30.450000000000298
F-0.56
F0.53
F0.65
tp610
a(F30.5000000000003
F-0.58
F0.45
F0.61
tp611
a(F30.5500000000003
F-0.58
F0.46
F0.59
tp612
a(F30.6000000000003
F-0.57
F0.48
F0.58
tp613
a(F30.6500000000003
F-0.57
F0.54
F0.63
tp614
a(F30.7000000000003
F-0.56
F0.58
F0.65
tp615
a(F30.750000000000302
F-0.54
F0.61
F0.7
tp616
a(F30.800000000000303
F-0.56
F0.62
F0.72
tp617
a(F30.850000000000303
F-0.56
F0.66
F0.71
tp618
a(F30.900000000000304
F-0.56
F0.68
F0.7
tp619
a(F30.950000000000305
F-0.56
F0.66
F0.72
tp620
a(F31.000000000000306
F-0.56
F0.65
F0.71
tp621
a(F31.050000000000306
F-0.55
F0.58
F0.69
tp622
a(F31.100000000000307
F-0.46
F0.62
F0.68
tp623
a(F31.150000000000308
F-0.44
F0.67
F0.65
tp624
a(F31.20000000000031
F-0.42
F0.64
F0.6
tp625
a(F31.25000000000031
F-0.32
F0.63
F0.54
tp626
a(F31.30000000000031
F-0.3
F0.64
F0.55
tp627
a(F31.35000000000031
F-0.19
F0.72
F0.49
tp628
a(F31.40000000000031
F-0.21
F0.83
F0.71
tp629
a(F31.450000000000312
F-0.09
F0.75
F0.54
tp630
a(F31.500000000000313
F-0.11
F0.75
F0.55
tp631
a(F31.550000000000313
F-0.05
F0.6
F0.55
tp632
a(F31.600000000000314
F0.0
F0.56
F0.54
tp633
a(F31.650000000000315
F0.07
F0.47
F0.49
tp634
a(F31.700000000000315
F0.17
F0.47
F0.46
tp635
a(F31.750000000000316
F0.26
F0.43
F0.4
tp636
a(F31.800000000000317
F0.29
F0.44
F0.42
tp637
a(F31.850000000000318
F0.33
F0.45
F0.37
tp638
a(F31.90000000000032
F0.28
F0.48
F0.4
tp639
a(F31.95000000000032
F0.3
F0.46
F0.38
tp640
a(F32.00000000000032
F0.24
F0.5
F0.48
tp641
a(F32.05000000000032
F0.23
F0.5
F0.44
tp642
a(F32.100000000000314
F0.16
F0.52
F0.53
tp643
a(F32.15000000000031
F0.07
F0.51
F0.57
tp644
a(F32.20000000000031
F0.08
F0.51
F0.51
tp645
a(F32.250000000000306
F-0.06
F0.66
F0.68
tp646
a(F32.3000000000003
F-0.1
F0.6
F0.62
tp647
a(F32.3500000000003
F-0.1
F0.51
F0.48
tp648
a(F32.4000000000003
F-0.35
F0.55
F0.65
tp649
a(F32.450000000000294
F-0.25
F0.52
F0.49
tp650
a(F32.50000000000029
F-0.39
F0.59
F0.6
tp651
a(F32.55000000000029
F-0.41
F0.6
F0.5
tp652
a(F32.600000000000286
F-0.42
F0.67
F0.59
tp653
a(F32.65000000000028
F-0.44
F0.76
F0.59
tp654
a(F32.70000000000028
F-0.44
F0.73
F0.64
tp655
a(F32.75000000000028
F-0.56
F0.75
F0.59
tp656
a(F32.800000000000274
F-0.57
F0.7
F0.53
tp657
a(F32.85000000000027
F-0.55
F0.73
F0.63
tp658
a(F32.90000000000027
F-0.58
F0.67
F0.59
tp659
a(F32.950000000000266
F-0.6
F0.62
F0.6
tp660
a(F33.00000000000026
F-0.6
F0.55
F0.55
tp661
a(F33.05000000000026
F-0.59
F0.53
F0.59
tp662
a(F33.10000000000026
F-0.61
F0.57
F0.6
tp663
a(F33.150000000000254
F-0.59
F0.59
F0.61
tp664
a(F33.20000000000025
F-0.6
F0.61
F0.59
tp665
a(F33.25000000000025
F-0.62
F0.65
F0.59
tp666
a(F33.300000000000246
F-0.62
F0.68
F0.64
tp667
a(F33.35000000000024
F-0.59
F0.67
F0.64
tp668
a(F33.40000000000024
F-0.61
F0.68
F0.63
tp669
a(F33.45000000000024
F-0.62
F0.72
F0.65
tp670
a(F33.500000000000234
F-0.59
F0.7
F0.63
tp671
a(F33.55000000000023
F-0.57
F0.76
F0.64
tp672
a(F33.60000000000023
F-0.53
F0.69
F0.6
tp673
a(F33.650000000000226
F-0.47
F0.71
F0.58
tp674
a(F33.70000000000022
F-0.44
F0.71
F0.51
tp675
a(F33.75000000000022
F-0.36
F0.73
F0.48
tp676
a(F33.80000000000022
F-0.33
F0.71
F0.5
tp677
a(F33.850000000000215
F-0.22
F0.68
F0.46
tp678
a(F33.90000000000021
F-0.19
F0.67
F0.52
tp679
a(F33.95000000000021
F-0.08
F0.67
F0.52
tp680
a(F34.000000000000206
F-0.01
F0.73
F0.53
tp681
a(F34.0500000000002
F0.06
F0.65
F0.47
tp682
a(F34.1000000000002
F0.06
F0.56
F0.43
tp683
a(F34.1500000000002
F0.14
F0.58
F0.43
tp684
a(F34.200000000000195
F0.15
F0.66
F0.59
tp685
a(F34.25000000000019
F0.17
F0.69
F0.67
tp686
a(F34.30000000000019
F0.19
F0.57
F0.52
tp687
a(F34.350000000000186
F0.2
F0.51
F0.49
tp688
a(F34.40000000000018
F0.23
F0.42
F0.43
tp689
a(F34.45000000000018
F0.23
F0.4
F0.48
tp690
a(F34.50000000000018
F0.26
F0.37
F0.48
tp691
a(F34.550000000000175
F0.19
F0.38
F0.55
tp692
a(F34.60000000000017
F0.11
F0.46
F0.63
tp693
a(F34.65000000000017
F0.07
F0.45
F0.56
tp694
a(F34.700000000000166
F-0.02
F0.45
F0.61
tp695
a(F34.75000000000016
F-0.13
F0.53
F0.67
tp696
a(F34.80000000000016
F-0.14
F0.58
F0.67
tp697
a(F34.85000000000016
F-0.22
F0.69
F0.74
tp698
a(F34.900000000000155
F-0.25
F0.68
F0.64
tp699
a(F34.95000000000015
F-0.29
F0.7
F0.68
tp700
a(F35.00000000000015
F-0.38
F0.69
F0.65
tp701
a(F35.050000000000146
F-0.39
F0.68
F0.65
tp702
a(F35.10000000000014
F-0.4
F0.64
F0.64
tp703
a(F35.15000000000014
F-0.47
F0.68
F0.61
tp704
a(F35.20000000000014
F-0.48
F0.64
F0.55
tp705
a(F35.250000000000135
F-0.53
F0.69
F0.65
tp706
a(F35.30000000000013
F-0.54
F0.67
F0.63
tp707
a(F35.35000000000013
F-0.57
F0.67
F0.7
tp708
a(F35.40000000000013
F-0.57
F0.58
F0.59
tp709
a(F35.450000000000124
F-0.58
F0.56
F0.52
tp710
a(F35.50000000000012
F-0.61
F0.54
F0.53
tp711
a(F35.55000000000012
F-0.6
F0.5
F0.48
tp712
a(F35.600000000000115
F-0.62
F0.51
F0.48
tp713
a(F35.65000000000011
F-0.6
F0.51
F0.41
tp714
a(F35.70000000000011
F-0.61
F0.55
F0.39
tp715
a(F35.75000000000011
F-0.62
F0.56
F0.41
tp716
a(F35.800000000000104
F-0.65
F0.58
F0.44
tp717
a(F35.8500000000001
F-0.63
F0.63
F0.51
tp718
a(F35.9000000000001
F-0.66
F0.68
F0.53
tp719
a(F35.950000000000095
F-0.63
F0.69
F0.53
tp720
a(F36.00000000000009
F-0.64
F0.72
F0.54
tp721
a(F36.05000000000009
F-0.63
F0.71
F0.52
tp722
a(F36.10000000000009
F-0.65
F0.76
F0.56
tp723
a(F36.150000000000084
F-0.63
F0.74
F0.49
tp724
a(F36.20000000000008
F-0.63
F0.71
F0.48
tp725
a(F36.25000000000008
F-0.61
F0.68
F0.45
tp726
a(F36.300000000000075
F-0.56
F0.7
F0.49
tp727
a(F36.35000000000007
F-0.48
F0.73
F0.5
tp728
a(F36.40000000000007
F-0.39
F0.71
F0.52
tp729
a(F36.45000000000007
F-0.32
F0.73
F0.51
tp730
a(F36.500000000000064
F-0.27
F0.71
F0.52
tp731
a(F36.55000000000006
F-0.19
F0.69
F0.55
tp732
a(F36.60000000000006
F-0.13
F0.63
F0.55
tp733
a(F36.650000000000055
F-0.02
F0.63
F0.55
tp734
a(F36.70000000000005
F0.03
F0.65
F0.56
tp735
a(F36.75000000000005
F0.06
F0.59
F0.58
tp736
a(F36.80000000000005
F0.1
F0.59
F0.58
tp737
a(F36.850000000000044
F0.17
F0.55
F0.54
tp738
a(F36.90000000000004
F0.16
F0.52
F0.5
tp739
a(F36.95000000000004
F0.24
F0.46
F0.55
tp740
a(F37.000000000000036
F0.31
F0.41
F0.45
tp741
a(F37.05000000000003
F0.29
F0.53
F0.51
tp742
a(F37.10000000000003
F0.3
F0.48
F0.42
tp743
a(F37.15000000000003
F0.24
F0.55
F0.53
tp744
a(F37.200000000000024
F0.24
F0.52
F0.46
tp745
a(F37.25000000000002
F0.16
F0.54
F0.51
tp746
a(F37.30000000000002
F0.12
F0.54
F0.4
tp747
a(F37.350000000000016
F0.07
F0.54
F0.42
tp748
a(F37.40000000000001
F-0.05
F0.57
F0.52
tp749
a(F37.45000000000001
F-0.13
F0.62
F0.46
tp750
a(F37.50000000000001
F-0.22
F0.62
F0.54
tp751
a(F37.550000000000004
F-0.32
F0.64
F0.53
tp752
a(F37.6
F-0.38
F0.69
F0.57
tp753
a(F37.65
F-0.48
F0.7
F0.56
tp754
a(F37.699999999999996
F-0.47
F0.69
F0.56
tp755
a(F37.74999999999999
F-0.59
F0.75
F0.59
tp756
a(F37.79999999999999
F-0.58
F0.7
F0.45
tp757
a(F37.84999999999999
F-0.63
F0.7
F0.44
tp758
a(F37.899999999999984
F-0.63
F0.7
F0.45
tp759
a(F37.94999999999998
F-0.67
F0.65
F0.37
tp760
a(F37.99999999999998
F-0.7
F0.62
F0.36
tp761
a(F38.049999999999976
F-0.72
F0.56
F0.32
tp762
a(F38.09999999999997
F-0.69
F0.57
F0.27
tp763
a(F38.14999999999997
F-0.69
F0.61
F0.27
tp764
a(F38.19999999999997
F-0.7
F0.71
F0.29
tp765
a(F38.249999999999964
F-0.72
F0.69
F0.29
tp766
a(F38.29999999999996
F-0.7
F0.74
F0.29
tp767
a(F38.34999999999996
F-0.68
F0.73
F0.31
tp768
a(F38.399999999999956
F-0.65
F0.74
F0.38
tp769
a(F38.44999999999995
F-0.69
F0.78
F0.3
tp770
a(F38.49999999999995
F-0.7
F0.81
F0.31
tp771
a(F38.54999999999995
F-0.7
F0.8
F0.32
tp772
a(F38.599999999999945
F-0.69
F0.76
F0.34
tp773
a(F38.64999999999994
F-0.59
F0.61
F0.27
tp774
a(F38.69999999999994
F-0.53
F0.71
F0.27
tp775
a(F38.749999999999936
F-0.48
F0.81
F0.3
tp776
a(F38.79999999999993
F-0.45
F0.84
F0.28
tp777
a(F38.84999999999993
F-0.4
F0.82
F0.29
tp778
a(F38.89999999999993
F-0.31
F0.81
F0.27
tp779
a(F38.949999999999925
F-0.24
F0.83
F0.33
tp780
a(F38.99999999999992
F-0.21
F0.69
F0.34
tp781
a(F39.04999999999992
F-0.06
F0.71
F0.32
tp782
a(F39.099999999999916
F-0.16
F0.7
F0.42
tp783
a(F39.14999999999991
F-0.19
F0.75
F0.47
tp784
a(F39.19999999999991
F-0.11
F0.73
F0.48
tp785
a(F39.24999999999991
F-0.07
F0.68
F0.49
tp786
a(F39.299999999999905
F0.03
F0.54
F0.37
tp787
a(F39.3499999999999
F0.14
F0.56
F0.3
tp788
a(F39.3999999999999
F0.11
F0.54
F0.29
tp789
a(F39.449999999999896
F0.14
F0.6
F0.35
tp790
a(F39.49999999999989
F0.17
F0.58
F0.36
tp791
a(F39.54999999999989
F0.17
F0.58
F0.34
tp792
a(F39.59999999999989
F0.1
F0.58
F0.38
tp793
a(F39.649999999999885
F0.05
F0.6
F0.39
tp794
a(F39.69999999999988
F-0.04
F0.56
F0.37
tp795
a(F39.74999999999988
F-0.05
F0.55
F0.3
tp796
a(F39.799999999999876
F-0.21
F0.58
F0.41
tp797
a(F39.84999999999987
F-0.28
F0.57
F0.27
tp798
a(F39.89999999999987
F-0.36
F0.53
F0.31
tp799
a(F39.94999999999987
F-0.46
F0.63
F0.42
tp800
a(F39.999999999999865
F-0.6
F0.66
F0.42
tp801
a(F40.04999999999986
F-0.6
F0.67
F0.35
tp802
a(F40.09999999999986
F-0.67
F0.7
F0.41
tp803
a(F40.14999999999986
F-0.74
F0.71
F0.43
tp804
a(F40.199999999999854
F-0.7
F0.71
F0.38
tp805
a(F40.24999999999985
F-0.73
F0.62
F0.31
tp806
a(F40.29999999999985
F-0.73
F0.61
F0.31
tp807
a(F40.349999999999845
F-0.7
F0.63
F0.23
tp808
a(F40.39999999999984
F-0.73
F0.63
F0.19
tp809
a(F40.44999999999984
F-0.75
F0.67
F0.17
tp810
a(F40.49999999999984
F-0.74
F0.61
F0.1
tp811
a(F40.549999999999834
F-0.76
F0.72
F0.16
tp812
a(F40.59999999999983
F-0.72
F0.68
F0.07
tp813
a(F40.64999999999983
F-0.73
F0.68
F0.11
tp814
a(F40.699999999999825
F-0.76
F0.74
F0.22
tp815
a(F40.74999999999982
F-0.76
F0.72
F0.2
tp816
a(F40.79999999999982
F-0.76
F0.7
F0.18
tp817
a(F40.84999999999982
F-0.72
F0.66
F0.17
tp818
a(F40.899999999999814
F-0.71
F0.7
F0.18
tp819
a(F40.94999999999981
F-0.75
F0.71
F0.16
tp820
a(F40.99999999999981
F-0.72
F0.72
F0.16
tp821
a(F41.049999999999805
F-0.69
F0.76
F0.16
tp822
a(F41.0999999999998
F-0.62
F0.78
F0.14
tp823
a(F41.1499999999998
F-0.6
F0.84
F0.2
tp824
a(F41.1999999999998
F-0.52
F0.81
F0.16
tp825
a(F41.249999999999794
F-0.54
F0.87
F0.24
tp826
a(F41.29999999999979
F-0.44
F0.92
F0.2
tp827
a(F41.34999999999979
F-0.46
F0.83
F0.16
tp828
a(F41.399999999999785
F-0.37
F0.83
F0.19
tp829
a(F41.44999999999978
F-0.37
F0.72
F0.19
tp830
a(F41.49999999999978
F-0.21
F0.73
F0.2
tp831
a(F41.54999999999978
F-0.03
F0.7
F0.18
tp832
a(F41.599999999999774
F-0.08
F0.74
F0.28
tp833
a(F41.64999999999977
F-0.13
F0.76
F0.42
tp834
a(F41.69999999999977
F-0.1
F0.64
F0.36
tp835
a(F41.749999999999766
F0.04
F0.6
F0.31
tp836
a(F41.79999999999976
F0.12
F0.55
F0.3
tp837
a(F41.84999999999976
F0.18
F0.57
F0.33
tp838
a(F41.89999999999976
F0.18
F0.57
F0.34
tp839
a(F41.949999999999754
F0.2
F0.56
F0.33
tp840
a(F41.99999999999975
F0.19
F0.59
F0.34
tp841
a(F42.04999999999975
F0.1
F0.63
F0.41
tp842
a(F42.099999999999746
F0.05
F0.67
F0.37
tp843
a(F42.14999999999974
F-0.05
F0.66
F0.4
tp844
a(F42.19999999999974
F-0.09
F0.66
F0.36
tp845
a(F42.24999999999974
F-0.12
F0.66
F0.35
tp846
a(F42.299999999999734
F-0.19
F0.66
F0.4
tp847
a(F42.34999999999973
F-0.28
F0.64
F0.4
tp848
a(F42.39999999999973
F-0.34
F0.62
F0.31
tp849
a(F42.449999999999726
F-0.39
F0.65
F0.35
tp850
a(F42.49999999999972
F-0.48
F0.66
F0.38
tp851
a(F42.54999999999972
F-0.51
F0.68
F0.37
tp852
a(F42.59999999999972
F-0.63
F0.65
F0.42
tp853
a(F42.649999999999714
F-0.67
F0.58
F0.38
tp854
a(F42.69999999999971
F-0.69
F0.6
F0.35
tp855
a(F42.74999999999971
F-0.69
F0.61
F0.31
tp856
a(F42.799999999999706
F-0.74
F0.64
F0.3
tp857
a(F42.8499999999997
F-0.74
F0.65
F0.29
tp858
a(F42.8999999999997
F-0.77
F0.65
F0.2
tp859
a(F42.9499999999997
F-0.8
F0.67
F0.17
tp860
a(F42.999999999999694
F-0.75
F0.65
F0.15
tp861
a(F43.04999999999969
F-0.75
F0.63
F0.15
tp862
a(F43.09999999999969
F-0.74
F0.58
F0.17
tp863
a(F43.149999999999686
F-0.74
F0.62
F0.11
tp864
a(F43.19999999999968
F-0.74
F0.6
F0.15
tp865
a(F43.24999999999968
F-0.75
F0.61
F0.18
tp866
a(F43.29999999999968
F-0.71
F0.59
F0.18
tp867
a(F43.349999999999675
F-0.72
F0.55
F0.19
tp868
a(F43.39999999999967
F-0.73
F0.56
F0.21
tp869
a(F43.44999999999967
F-0.74
F0.53
F0.22
tp870
a(F43.499999999999666
F-0.73
F0.6
F0.27
tp871
a(F43.54999999999966
F-0.75
F0.63
F0.2
tp872
a(F43.59999999999966
F-0.74
F0.67
F0.21
tp873
a(F43.64999999999966
F-0.75
F0.7
F0.21
tp874
a(F43.699999999999655
F-0.72
F0.65
F0.16
tp875
a(F43.74999999999965
F-0.67
F0.69
F0.18
tp876
a(F43.79999999999965
F-0.63
F0.77
F0.19
tp877
a(F43.849999999999646
F-0.7
F0.86
F0.24
tp878
a(F43.89999999999964
F-0.68
F0.81
F0.15
tp879
a(F43.94999999999964
F-0.65
F0.78
F0.17
tp880
a(F43.99999999999964
F-0.54
F0.79
F0.16
tp881
a(F44.049999999999635
F-0.56
F0.79
F0.14
tp882
a(F44.09999999999963
F-0.44
F0.81
F0.21
tp883
a(F44.14999999999963
F-0.38
F0.77
F0.15
tp884
a(F44.199999999999626
F-0.31
F0.77
F0.19
tp885
a(F44.24999999999962
F-0.31
F0.7
F0.11
tp886
a(F44.29999999999962
F-0.26
F0.77
F0.18
tp887
a(F44.34999999999962
F-0.14
F0.75
F0.08
tp888
a(F44.399999999999615
F-0.11
F0.77
F0.22
tp889
a(F44.44999999999961
F0.02
F0.79
F0.25
tp890
a(F44.49999999999961
F0.02
F0.8
F0.36
tp891
a(F44.549999999999606
F0.09
F0.75
F0.32
tp892
a(F44.5999999999996
F0.11
F0.7
F0.3
tp893
a(F44.6499999999996
F0.19
F0.69
F0.27
tp894
a(F44.6999999999996
F0.21
F0.65
F0.28
tp895
a(F44.749999999999595
F0.27
F0.61
F0.2
tp896
a(F44.79999999999959
F0.29
F0.58
F0.22
tp897
a(F44.84999999999959
F0.33
F0.61
F0.27
tp898
a(F44.89999999999959
F0.32
F0.67
F0.38
tp899
a(F44.949999999999584
F0.3
F0.71
F0.43
tp900
a(F44.99999999999958
F0.23
F0.78
F0.45
tp901
a(F45.04999999999958
F0.15
F0.79
F0.4
tp902
a(F45.099999999999575
F0.13
F0.75
F0.35
tp903
a(F45.14999999999957
F0.05
F0.67
F0.36
tp904
a(F45.19999999999957
F0.11
F0.63
F0.24
tp905
a(F45.24999999999957
F0.09
F0.64
F0.3
tp906
a(F45.299999999999564
F0.07
F0.68
F0.31
tp907
a(F45.34999999999956
F-0.05
F0.69
F0.29
tp908
a(F45.39999999999956
F0.02
F0.74
F0.22
tp909
a(F45.449999999999555
F-0.21
F0.79
F0.46
tp910
a(F45.49999999999955
F-0.23
F0.83
F0.37
tp911
a(F45.54999999999955
F-0.39
F0.84
F0.43
tp912
a(F45.59999999999955
F-0.41
F0.8
F0.42
tp913
a(F45.649999999999544
F-0.5
F0.7
F0.4
tp914
a(F45.69999999999954
F-0.6
F0.73
F0.49
tp915
a(F45.74999999999954
F-0.62
F0.72
F0.42
tp916
a(F45.799999999999535
F-0.65
F0.65
F0.4
tp917
a(F45.84999999999953
F-0.64
F0.61
F0.42
tp918
a(F45.89999999999953
F-0.6
F0.67
F0.29
tp919
a(F45.94999999999953
F-0.64
F0.75
F0.31
tp920
a(F45.999999999999524
F-0.69
F0.77
F0.28
tp921
a(F46.04999999999952
F-0.67
F0.77
F0.3
tp922
a(F46.09999999999952
F-0.66
F0.72
F0.33
tp923
a(F46.149999999999515
F-0.68
F0.66
F0.27
tp924
a(F46.19999999999951
F-0.67
F0.62
F0.33
tp925
a(F46.24999999999951
F-0.72
F0.65
F0.29
tp926
a(F46.29999999999951
F-0.69
F0.65
F0.35
tp927
a(F46.349999999999504
F-0.66
F0.69
F0.35
tp928
a(F46.3999999999995
F-0.69
F0.73
F0.3
tp929
a(F46.4499999999995
F-0.69
F0.81
F0.3
tp930
a(F46.499999999999496
F-0.71
F0.79
F0.28
tp931
a(F46.54999999999949
F-0.61
F0.78
F0.28
tp932
a(F46.59999999999949
F-0.66
F0.74
F0.34
tp933
a(F46.64999999999949
F-0.66
F0.77
F0.34
tp934
a(F46.699999999999484
F-0.68
F0.8
F0.39
tp935
a(F46.74999999999948
F-0.63
F0.75
F0.31
tp936
a(F46.79999999999948
F-0.57
F0.76
F0.27
tp937
a(F46.849999999999476
F-0.49
F0.67
F0.23
tp938
a(F46.89999999999947
F-0.46
F0.78
F0.38
tp939
a(F46.94999999999947
F-0.41
F0.73
F0.38
tp940
a(F46.99999999999947
F-0.29
F0.73
F0.38
tp941
a(F47.049999999999464
F-0.24
F0.73
F0.41
tp942
a(F47.09999999999946
F-0.11
F0.73
F0.34
tp943
a(F47.14999999999946
F-0.07
F0.73
F0.41
tp944
a(F47.199999999999456
F0.04
F0.75
F0.48
tp945
a(F47.24999999999945
F0.1
F0.71
F0.52
tp946
a(F47.29999999999945
F0.21
F0.7
F0.48
tp947
a(F47.34999999999945
F0.2
F0.68
F0.39
tp948
a(F47.399999999999444
F0.27
F0.67
F0.27
tp949
a(F47.44999999999944
F0.24
F0.76
F0.31
tp950
a(F47.49999999999944
F0.25
F0.82
F0.25
tp951
a(F47.549999999999436
F0.22
F0.78
F0.19
tp952
a(F47.59999999999943
F0.31
F0.76
F0.15
tp953
a(F47.64999999999943
F0.32
F0.73
F0.26
tp954
a(F47.69999999999943
F0.4
F0.65
F0.21
tp955
a(F47.749999999999424
F0.38
F0.63
F0.23
tp956
a(F47.79999999999942
F0.34
F0.64
F0.3
tp957
a(F47.84999999999942
F0.28
F0.64
F0.26
tp958
a(F47.899999999999416
F0.26
F0.64
F0.22
tp959
a(F47.94999999999941
F0.17
F0.64
F0.3
tp960
a(F47.99999999999941
F0.22
F0.59
F0.19
tp961
a(F48.04999999999941
F0.09
F0.6
F0.42
tp962
a(F48.099999999999405
F0.08
F0.55
F0.37
tp963
a(F48.1499999999994
F-0.01
F0.64
F0.35
tp964
a(F48.1999999999994
F-0.14
F0.74
F0.42
tp965
a(F48.249999999999396
F-0.28
F0.74
F0.36
tp966
a(F48.29999999999939
F-0.28
F0.74
F0.29
tp967
a(F48.34999999999939
F-0.55
F0.75
F0.61
tp968
a(F48.39999999999939
F-0.57
F0.69
F0.28
tp969
a(F48.449999999999385
F-0.68
F0.76
F0.36
tp970
a(F48.49999999999938
F-0.7
F0.88
F0.37
tp971
a(F48.54999999999938
F-0.75
F0.84
F0.34
tp972
a(F48.599999999999376
F-0.66
F0.74
F0.24
tp973
a(F48.64999999999937
F-0.77
F0.75
F0.3
tp974
a(F48.69999999999937
F-0.77
F0.66
F0.22
tp975
a(F48.74999999999937
F-0.75
F0.63
F0.17
tp976
a(F48.799999999999365
F-0.77
F0.63
F0.15
tp977
a(F48.84999999999936
F-0.76
F0.65
F0.16
tp978
a(F48.89999999999936
F-0.76
F0.68
F0.19
tp979
a(F48.949999999999356
F-0.8
F0.69
F0.21
tp980
a(F48.99999999999935
F-0.79
F0.64
F0.15
tp981
a(F49.04999999999935
F-0.77
F0.64
F0.14
tp982
a(F49.09999999999935
F-0.78
F0.69
F0.14
tp983
a(F49.149999999999345
F-0.77
F0.68
F0.16
tp984
a(F49.19999999999934
F-0.7
F0.7
F0.22
tp985
a(F49.24999999999934
F-0.71
F0.77
F0.2
tp986
a(F49.299999999999336
F-0.7
F0.74
F0.19
tp987
a(F49.34999999999933
F-0.69
F0.76
F0.15
tp988
a(F49.39999999999933
F-0.67
F0.74
F0.13
tp989
a(F49.44999999999933
F-0.62
F0.76
F0.12
tp990
a(F49.499999999999325
F-0.55
F0.82
F0.14
tp991
a(F49.54999999999932
F-0.49
F0.83
F0.11
tp992
a(F49.59999999999932
F-0.43
F0.85
F0.17
tp993
a(F49.64999999999932
F-0.34
F0.86
F0.14
tp994
a(F49.699999999999314
F-0.32
F0.82
F0.07
tp995
a(F49.74999999999931
F-0.27
F0.81
F0.03
tp996
a(F49.79999999999931
F-0.22
F0.82
F0.09
tp997
a(F49.849999999999305
F-0.06
F0.77
F0.08
tp998
a(F49.8999999999993
F0.03
F0.73
F0.11
tp999
a(F49.9499999999993
F0.13
F0.71
F0.13
tp1000
a(F49.9999999999993
F0.2
F0.71
F0.15
tp1001
a(F50.049999999999294
F0.18
F0.78
F0.18
tp1002
a.