(lp0
(F0.05
I0
I0
I0
tp1
a(F0.05
I0
I0
I0
tp2
a(F0.1
F0.3
F-0.96
F-0.34
tp3
a(F0.15000000000000002
F0.29
F-0.96
F-0.34
tp4
a(F0.2
F0.29
F-0.96
F-0.34
tp5
a(F0.25
F0.29
F-0.96
F-0.35
tp6
a(F0.3
F0.29
F-0.96
F-0.34
tp7
a(F0.35
F0.29
F-0.96
F-0.34
tp8
a(F0.39999999999999997
F0.29
F-0.96
F-0.34
tp9
a(F0.44999999999999996
I0
I0
I0
tp10
a(F0.49999999999999994
F0.3
F-0.96
F-0.34
tp11
a(F0.5499999999999999
F0.29
F-0.96
F-0.34
tp12
a(F0.6
F0.29
F-0.96
F-0.34
tp13
a(F0.65
F0.29
F-0.96
F-0.35
tp14
a(F0.7000000000000001
F0.29
F-0.96
F-0.34
tp15
a(F0.7500000000000001
F0.29
F-0.96
F-0.34
tp16
a(F0.8000000000000002
F0.29
F-0.96
F-0.34
tp17
a(F0.8500000000000002
F0.16
F-0.5
F-0.3
tp18
a(F0.9000000000000002
F0.32
F-0.6
F-0.43
tp19
a(F0.9500000000000003
F0.31
F-0.66
F-0.61
tp20
a(F1.0000000000000002
F0.28
F-0.65
F-0.79
tp21
a(F1.0500000000000003
F0.3
F-0.61
F-0.71
tp22
a(F1.1000000000000003
F0.38
F-0.55
F-0.68
tp23
a(F1.1500000000000004
F0.45
F-0.65
F-0.4
tp24
a(F1.2000000000000004
F0.62
F-0.66
F-0.49
tp25
a(F1.2500000000000004
F0.56
F-0.73
F-0.31
tp26
a(F1.3000000000000005
F0.58
F-0.7
F-0.29
tp27
a(F1.3500000000000005
F0.5
F-0.74
F-0.15
tp28
a(F1.4000000000000006
F0.57
F-0.71
F-0.23
tp29
a(F1.4500000000000006
F0.64
F-0.72
F-0.24
tp30
a(F1.5000000000000007
F0.67
F-0.85
F-0.33
tp31
a(F1.5500000000000007
F0.63
F-0.82
F-0.35
tp32
a(F1.6000000000000008
F0.65
F-0.78
F-0.52
tp33
a(F1.6500000000000008
F0.63
F-0.86
F-0.5
tp34
a(F1.7000000000000008
F0.61
F-0.82
F-0.47
tp35
a(F1.7500000000000009
F0.58
F-0.89
F-0.19
tp36
a(F1.800000000000001
F0.49
F-0.96
F-0.12
tp37
a(F1.850000000000001
F0.44
F-0.97
F-0.04
tp38
a(F1.900000000000001
F0.38
F-1.05
F-0.11
tp39
a(F1.950000000000001
F0.42
F-1.03
F-0.1
tp40
a(F2.000000000000001
F0.56
F-1.11
F-0.16
tp41
a(F2.0500000000000007
F0.44
F-1.19
F-0.02
tp42
a(F2.1000000000000005
F0.35
F-1.21
F-0.18
tp43
a(F2.1500000000000004
F0.36
F-1.21
F-0.08
tp44
a(F2.2
F0.24
F-1.29
F0.15
tp45
a(F2.25
F0.18
F-1.56
F0.28
tp46
a(F2.3
F0.26
F-1.39
F0.18
tp47
a(F2.3499999999999996
F0.22
F-1.31
F0.16
tp48
a(F2.3999999999999995
F0.21
F-1.15
F0.13
tp49
a(F2.4499999999999993
F0.17
F-1.08
F0.22
tp50
a(F2.499999999999999
F0.17
F-1.08
F0.31
tp51
a(F2.549999999999999
F0.22
F-1.05
F0.34
tp52
a(F2.5999999999999988
F0.16
F-1.02
F0.26
tp53
a(F2.6499999999999986
F0.22
F-0.93
F0.11
tp54
a(F2.6999999999999984
F0.12
F-1.01
F0.09
tp55
a(F2.7499999999999982
F0.16
F-0.97
F0.07
tp56
a(F2.799999999999998
F0.15
F-0.93
F0.14
tp57
a(F2.849999999999998
F0.09
F-0.88
F0.19
tp58
a(F2.8999999999999977
F0.11
F-0.85
F0.19
tp59
a(F2.9499999999999975
F-0.03
F-0.94
F0.16
tp60
a(F2.9999999999999973
F0.12
F-0.92
F0.21
tp61
a(F3.049999999999997
F0.26
F-0.81
F0.11
tp62
a(F3.099999999999997
F0.24
F-0.81
F0.09
tp63
a(F3.149999999999997
F0.22
F-0.82
F0.13
tp64
a(F3.1999999999999966
F0.25
F-0.85
F0.1
tp65
a(F3.2499999999999964
F0.22
F-0.84
F0.09
tp66
a(F3.2999999999999963
F0.27
F-0.9
F0.14
tp67
a(F3.349999999999996
F0.27
F-0.91
F0.14
tp68
a(F3.399999999999996
F0.25
F-0.93
F0.22
tp69
a(F3.4499999999999957
F0.15
F-0.93
F0.24
tp70
a(F3.4999999999999956
F0.12
F-0.96
F0.28
tp71
a(F3.5499999999999954
F0.07
F-0.92
F0.2
tp72
a(F3.599999999999995
F0.14
F-1.01
F0.24
tp73
a(F3.649999999999995
F0.12
F-0.99
F0.07
tp74
a(F3.699999999999995
F0.23
F-1.03
F0.07
tp75
a(F3.7499999999999947
F0.23
F-1.09
F0.1
tp76
a(F3.7999999999999945
F0.23
F-1.07
F0.12
tp77
a(F3.8499999999999943
F0.14
F-1.1
F0.14
tp78
a(F3.899999999999994
F0.14
F-1.11
F0.17
tp79
a(F3.949999999999994
F0.13
F-1.12
F0.14
tp80
a(F3.999999999999994
F0.18
F-1.12
F0.07
tp81
a(F4.049999999999994
F0.22
F-1.16
F0.07
tp82
a(F4.099999999999993
F0.19
F-1.17
F0.03
tp83
a(F4.149999999999993
F0.14
F-1.14
F-0.02
tp84
a(F4.199999999999993
F0.11
F-1.18
F-0.05
tp85
a(F4.249999999999993
F0.01
F-1.23
F0.03
tp86
a(F4.299999999999993
F-0.07
F-1.23
F0.07
tp87
a(F4.3499999999999925
F-0.07
F-1.2
F0.05
tp88
a(F4.399999999999992
F-0.0
F-1.15
F0.07
tp89
a(F4.449999999999992
F-0.06
F-1.17
F0.12
tp90
a(F4.499999999999992
F-0.02
F-1.13
F0.11
tp91
a(F4.549999999999992
F-0.06
F-1.15
F0.15
tp92
a(F4.599999999999992
F-0.05
F-1.1
F0.1
tp93
a(F4.6499999999999915
F-0.04
F-1.12
F0.04
tp94
a(F4.699999999999991
F-0.08
F-1.08
F0.02
tp95
a(F4.749999999999991
F-0.07
F-1.05
F-0.01
tp96
a(F4.799999999999991
F-0.05
F-1.02
F-0.08
tp97
a(F4.849999999999991
F-0.1
F-1.01
F-0.06
tp98
a(F4.899999999999991
F-0.11
F-0.98
F-0.07
tp99
a(F4.94999999999999
F0.01
F-0.9
F-0.14
tp100
a(F4.99999999999999
F0.03
F-0.89
F-0.1
tp101
a(F5.04999999999999
F0.02
F-0.89
F-0.02
tp102
a(F5.09999999999999
F0.01
F-0.9
F-0.02
tp103
a(F5.14999999999999
F-0.03
F-0.91
F-0.04
tp104
a(F5.1999999999999895
F-0.02
F-0.89
F-0.06
tp105
a(F5.249999999999989
F-0.02
F-0.85
F-0.11
tp106
a(F5.299999999999989
F0.02
F-0.84
F-0.11
tp107
a(F5.349999999999989
F0.05
F-0.85
F-0.15
tp108
a(F5.399999999999989
F0.01
F-0.88
F-0.07
tp109
a(F5.449999999999989
F-0.0
F-0.9
F-0.04
tp110
a(F5.4999999999999885
F-0.03
F-0.94
F-0.03
tp111
a(F5.549999999999988
F-0.01
F-0.96
F-0.06
tp112
a(F5.599999999999988
F29.54
F28.5
F28.53
tp113
a(F5.649999999999988
F14.81
F14.22
F14.31
tp114
a(F5.699999999999988
F7.45
F6.61
F7.15
tp115
a(F5.749999999999988
F3.63
F2.72
F3.57
tp116
a(F5.799999999999987
F1.83
F0.8
F1.75
tp117
a(F5.849999999999987
F0.88
F-0.1
F0.9
tp118
a(F5.899999999999987
F0.41
F-0.59
F0.4
tp119
a(F5.949999999999987
F0.19
F-0.84
F0.18
tp120
a(F5.999999999999987
F0.08
F-0.98
F0.07
tp121
a(F6.0499999999999865
F0.02
F-1.06
F0.08
tp122
a(F6.099999999999986
F0.04
F-1.07
F0.03
tp123
a(F6.149999999999986
F0.04
F-1.06
F0.0
tp124
a(F6.199999999999986
F0.08
F-1.02
F-0.06
tp125
a(F6.249999999999986
F0.08
F-0.54
F0.02
tp126
a(F6.299999999999986
F-0.04
F-0.77
F0.02
tp127
a(F6.349999999999985
F-0.08
F-0.95
F0.07
tp128
a(F6.399999999999985
F-0.07
F-0.97
F-0.08
tp129
a(F6.449999999999985
F-0.08
F-1.1
F0.02
tp130
a(F6.499999999999985
F-0.07
F-1.13
F-0.03
tp131
a(F6.549999999999985
F-0.05
F-1.16
F-0.02
tp132
a(F6.5999999999999845
F-0.03
F-1.11
F-0.04
tp133
a(F6.649999999999984
F-0.07
F-1.06
F-0.05
tp134
a(F6.699999999999984
F-0.05
F-1.05
F-0.09
tp135
a(F6.749999999999984
F-0.08
F-1.05
F-0.08
tp136
a(F6.799999999999984
F-0.07
F-1.08
F-0.07
tp137
a(F6.849999999999984
F-0.17
F-1.01
F0.05
tp138
a(F6.8999999999999835
F-0.09
F-1.01
F-0.01
tp139
a(F6.949999999999983
F-0.08
F-1.04
F-0.02
tp140
a(F6.999999999999983
F-0.16
F-1.04
F-0.01
tp141
a(F7.049999999999983
F-0.11
F-0.99
F-0.12
tp142
a(F7.099999999999983
F-0.14
F-0.94
F-0.12
tp143
a(F7.149999999999983
F-0.15
F-0.87
F-0.07
tp144
a(F7.199999999999982
F-0.17
F-0.9
F-0.04
tp145
a(F7.249999999999982
F-0.09
F-0.82
F-0.09
tp146
a(F7.299999999999982
F-0.07
F-0.8
F-0.1
tp147
a(F7.349999999999982
F0.12
F-0.51
F-0.21
tp148
a(F7.399999999999982
F0.04
F-0.66
F-0.18
tp149
a(F7.4499999999999815
F-0.04
F-0.77
F-0.11
tp150
a(F7.499999999999981
F-0.06
F-0.85
F-0.13
tp151
a(F7.549999999999981
F-0.08
F-0.85
F-0.14
tp152
a(F7.599999999999981
F-0.13
F-0.9
F-0.07
tp153
a(F7.649999999999981
F-0.15
F-0.9
F-0.1
tp154
a(F7.699999999999981
F-0.14
F-0.94
F-0.05
tp155
a(F7.7499999999999805
F-0.17
F-0.98
F-0.03
tp156
a(F7.79999999999998
F-0.11
F-0.95
F-0.12
tp157
a(F7.84999999999998
F-0.14
F-0.97
F-0.01
tp158
a(F7.89999999999998
F-0.15
F-0.97
F-0.17
tp159
a(F7.94999999999998
F-0.13
F-0.96
F-0.11
tp160
a(F7.99999999999998
F-0.16
F-0.97
F-0.16
tp161
a(F8.04999999999998
F-0.15
F-0.96
F-0.1
tp162
a(F8.09999999999998
F-0.27
F-0.98
F0.03
tp163
a(F8.14999999999998
F-0.23
F-1.05
F-0.02
tp164
a(F8.199999999999982
F-0.29
F-1.09
F-0.03
tp165
a(F8.249999999999982
F-0.3
F-1.1
F0.06
tp166
a(F8.299999999999983
F-0.28
F-1.11
F-0.05
tp167
a(F8.349999999999984
F-0.27
F-1.09
F-0.11
tp168
a(F8.399999999999984
F-0.28
F-1.1
F-0.09
tp169
a(F8.449999999999985
F-0.24
F-1.1
F-0.12
tp170
a(F8.499999999999986
F-0.24
F-1.13
F-0.13
tp171
a(F8.549999999999986
F-0.25
F-1.16
F-0.06
tp172
a(F8.599999999999987
F-0.27
F-1.14
F-0.09
tp173
a(F8.649999999999988
F-0.27
F-1.12
F-0.03
tp174
a(F8.699999999999989
F-0.28
F-1.1
F0.01
tp175
a(F8.74999999999999
F-0.25
F-1.09
F0.05
tp176
a(F8.79999999999999
F-0.23
F-1.1
F-0.02
tp177
a(F8.84999999999999
F-0.23
F-1.07
F-0.03
tp178
a(F8.899999999999991
F-0.21
F-1.02
F-0.09
tp179
a(F8.949999999999992
F-0.19
F-0.99
F-0.09
tp180
a(F8.999999999999993
F-0.25
F-0.94
F-0.03
tp181
a(F9.049999999999994
F-0.22
F-0.91
F-0.01
tp182
a(F9.099999999999994
F-0.22
F-0.88
F-0.04
tp183
a(F9.149999999999995
F-0.22
F-0.86
F-0.03
tp184
a(F9.199999999999996
F-0.22
F-0.86
F-0.03
tp185
a(F9.249999999999996
F-0.19
F-0.8
F0.02
tp186
a(F9.299999999999997
F-0.12
F-0.77
F-0.06
tp187
a(F9.349999999999998
F-0.09
F-0.76
F-0.07
tp188
a(F9.399999999999999
F-0.09
F-0.81
F-0.07
tp189
a(F9.45
F-0.08
F-0.86
F-0.13
tp190
a(F9.5
F-0.07
F-0.87
F-0.14
tp191
a(F9.55
F-0.1
F-0.88
F-0.15
tp192
a(F9.600000000000001
F-0.08
F-0.84
F-0.18
tp193
a(F9.650000000000002
F-0.13
F-0.89
F-0.1
tp194
a(F9.700000000000003
F-0.17
F-0.94
F-0.05
tp195
a(F9.750000000000004
F-0.2
F-0.96
F-0.07
tp196
a(F9.800000000000004
F-0.16
F-0.95
F-0.03
tp197
a(F9.850000000000005
F-0.16
F-1.01
F-0.05
tp198
a(F9.900000000000006
F-0.15
F-1.07
F-0.06
tp199
a(F9.950000000000006
F-0.1
F-1.05
F-0.09
tp200
a(F10.000000000000007
F-0.17
F-1.03
F-0.1
tp201
a(F10.050000000000008
F-0.06
F-0.99
F-0.12
tp202
a(F10.100000000000009
F-0.18
F-1.04
F-0.08
tp203
a(F10.15000000000001
F-0.14
F-1.05
F-0.07
tp204
a(F10.20000000000001
F-0.15
F-1.08
F-0.0
tp205
a(F10.25000000000001
F-0.14
F-1.07
F-0.01
tp206
a(F10.300000000000011
F-0.11
F-1.06
F0.0
tp207
a(F10.350000000000012
F-0.08
F-1.08
F-0.04
tp208
a(F10.400000000000013
F-0.11
F-1.12
F-0.08
tp209
a(F10.450000000000014
F-0.12
F-1.13
F-0.11
tp210
a(F10.500000000000014
F-0.13
F-1.16
F-0.08
tp211
a(F10.550000000000015
F-0.15
F-1.18
F-0.04
tp212
a(F10.600000000000016
F-0.16
F-1.18
F-0.03
tp213
a(F10.650000000000016
F-0.14
F-1.19
F-0.07
tp214
a(F10.700000000000017
F-0.17
F-1.18
F-0.05
tp215
a(F10.750000000000018
F-0.18
F-1.16
F-0.05
tp216
a(F10.800000000000018
F-0.18
F-1.13
F-0.08
tp217
a(F10.85000000000002
F-0.17
F-1.08
F-0.04
tp218
a(F10.90000000000002
F-0.13
F-1.06
F-0.05
tp219
a(F10.95000000000002
F-0.14
F-1.04
F-0.06
tp220
a(F11.000000000000021
F-0.18
F-1.02
F-0.03
tp221
a(F11.050000000000022
F-0.19
F-0.97
F-0.05
tp222
a(F11.100000000000023
F-0.27
F-1.0
F0.1
tp223
a(F11.150000000000023
F-0.19
F-0.97
F0.1
tp224
a(F11.200000000000024
F-0.18
F-0.97
F0.1
tp225
a(F11.250000000000025
F-0.14
F-0.89
F0.02
tp226
a(F11.300000000000026
F-0.12
F-0.85
F-0.03
tp227
a(F11.350000000000026
F-0.12
F-0.81
F-0.11
tp228
a(F11.400000000000027
F-0.09
F-0.78
F-0.13
tp229
a(F11.450000000000028
F-0.05
F-0.79
F-0.13
tp230
a(F11.500000000000028
F0.01
F-0.81
F-0.13
tp231
a(F11.55000000000003
F-0.02
F-0.84
F-0.06
tp232
a(F11.60000000000003
F-0.01
F-0.86
F-0.06
tp233
a(F11.65000000000003
F-0.01
F-0.91
F-0.14
tp234
a(F11.700000000000031
F0.01
F-0.91
F-0.04
tp235
a(F11.750000000000032
F-0.12
F-0.87
F-0.05
tp236
a(F11.800000000000033
F-0.16
F-0.91
F0.02
tp237
a(F11.850000000000033
F-0.1
F-0.89
F-0.04
tp238
a(F11.900000000000034
F-0.09
F-0.92
F-0.11
tp239
a(F11.950000000000035
F-0.12
F-0.99
F-0.13
tp240
a(F12.000000000000036
F-0.11
F-1.02
F-0.05
tp241
a(F12.050000000000036
F-0.07
F-1.02
F-0.12
tp242
a(F12.100000000000037
F-0.07
F-1.05
F-0.06
tp243
a(F12.150000000000038
F-0.0
F-1.04
F-0.12
tp244
a(F12.200000000000038
F-0.1
F-1.11
F0.01
tp245
a(F12.250000000000039
F-0.01
F-1.1
F-0.03
tp246
a(F12.30000000000004
F-0.03
F-1.11
F-0.02
tp247
a(F12.35000000000004
F0.04
F-1.1
F-0.09
tp248
a(F12.400000000000041
F0.04
F-1.15
F0.03
tp249
a(F12.450000000000042
F0.03
F-1.15
F0.02
tp250
a(F12.500000000000043
F0.0
F-1.21
F0.04
tp251
a(F12.550000000000043
F-0.03
F-1.23
F0.03
tp252
a(F12.600000000000044
F-0.03
F-1.24
F0.08
tp253
a(F12.650000000000045
F-0.05
F-1.31
F0.1
tp254
a(F12.700000000000045
F-0.03
F-1.33
F0.13
tp255
a(F12.750000000000046
F-0.02
F-1.25
F0.14
tp256
a(F12.800000000000047
F-0.01
F-1.15
F0.08
tp257
a(F12.850000000000048
F-0.0
F-1.09
F0.03
tp258
a(F12.900000000000048
F0.0
F-1.07
F0.05
tp259
a(F12.950000000000049
F-0.01
F-1.04
F0.1
tp260
a(F13.00000000000005
F-0.01
F-0.98
F0.17
tp261
a(F13.05000000000005
F-0.01
F-0.86
F0.12
tp262
a(F13.100000000000051
F-0.03
F-0.79
F0.11
tp263
a(F13.150000000000052
F-0.07
F-0.83
F0.13
tp264
a(F13.200000000000053
F-0.06
F-0.83
F0.09
tp265
a(F13.250000000000053
F-0.06
F-0.88
F0.09
tp266
a(F13.300000000000054
F-0.01
F-0.88
F0.06
tp267
a(F13.350000000000055
F0.12
F-0.82
F-0.05
tp268
a(F13.400000000000055
F0.11
F-0.83
F-0.06
tp269
a(F13.450000000000056
F0.1
F-0.86
F-0.1
tp270
a(F13.500000000000057
F0.12
F-0.92
F-0.15
tp271
a(F13.550000000000058
F0.18
F-0.96
F-0.09
tp272
a(F13.600000000000058
F0.23
F-0.93
F-0.13
tp273
a(F13.650000000000059
F0.18
F-0.94
F-0.07
tp274
a(F13.70000000000006
F0.09
F-0.92
F-0.1
tp275
a(F13.75000000000006
F0.02
F-0.95
F0.02
tp276
a(F13.800000000000061
F-0.07
F-0.95
F0.1
tp277
a(F13.850000000000062
F0.01
F-0.98
F-0.0
tp278
a(F13.900000000000063
F-0.09
F-1.08
F0.22
tp279
a(F13.950000000000063
F-0.06
F-1.02
F0.09
tp280
a(F14.000000000000064
F-0.02
F-1.04
F0.09
tp281
a(F14.050000000000065
F-0.03
F-1.03
F0.05
tp282
a(F14.100000000000065
F0.05
F-1.1
F0.05
tp283
a(F14.150000000000066
F0.05
F-1.13
F0.04
tp284
a(F14.200000000000067
F0.05
F-1.14
F-0.01
tp285
a(F14.250000000000068
F0.07
F-1.14
F-0.09
tp286
a(F14.300000000000068
F0.04
F-1.16
F-0.08
tp287
a(F14.350000000000069
F0.03
F-1.2
F-0.07
tp288
a(F14.40000000000007
F0.04
F-1.22
F-0.06
tp289
a(F14.45000000000007
F0.03
F-1.23
F-0.08
tp290
a(F14.500000000000071
F0.03
F-1.23
F-0.07
tp291
a(F14.550000000000072
F0.02
F-1.2
F-0.05
tp292
a(F14.600000000000072
F0.01
F-1.17
F-0.04
tp293
a(F14.650000000000073
F-0.0
F-1.14
F-0.01
tp294
a(F14.700000000000074
F-0.01
F-1.18
F0.04
tp295
a(F14.750000000000075
F-0.02
F-1.14
F0.04
tp296
a(F14.800000000000075
F-0.04
F-1.11
F0.04
tp297
a(F14.850000000000076
F-0.04
F-1.08
F0.09
tp298
a(F14.900000000000077
F-0.02
F-1.03
F0.1
tp299
a(F14.950000000000077
F0.03
F-0.96
F0.07
tp300
a(F15.000000000000078
F0.08
F-0.92
F0.11
tp301
a(F15.050000000000079
F0.15
F-0.87
F0.0
tp302
a(F15.10000000000008
F0.12
F-0.85
F-0.01
tp303
a(F15.15000000000008
F0.12
F-0.83
F-0.08
tp304
a(F15.200000000000081
F0.13
F-0.86
F-0.05
tp305
a(F15.250000000000082
F0.13
F-0.88
F-0.08
tp306
a(F15.300000000000082
F0.17
F-0.89
F-0.04
tp307
a(F15.350000000000083
F0.11
F-0.92
F-0.08
tp308
a(F15.400000000000084
F0.14
F-0.92
F-0.07
tp309
a(F15.450000000000085
F0.09
F-0.95
F-0.08
tp310
a(F15.500000000000085
F0.16
F-0.88
F-0.07
tp311
a(F15.550000000000086
F0.18
F-0.86
F-0.12
tp312
a(F15.600000000000087
F0.1
F-0.86
F-0.05
tp313
a(F15.650000000000087
F0.14
F-0.83
F-0.23
tp314
a(F15.700000000000088
F0.02
F-0.98
F0.01
tp315
a(F15.750000000000089
F0.1
F-0.97
F-0.11
tp316
a(F15.80000000000009
F0.02
F-1.04
F0.01
tp317
a(F15.85000000000009
F0.18
F-1.08
F-0.08
tp318
a(F15.900000000000091
F0.08
F-1.18
F0.02
tp319
a(F15.950000000000092
F0.16
F-1.16
F-0.09
tp320
a(F16.000000000000092
F0.14
F-1.13
F-0.09
tp321
a(F16.050000000000093
F0.08
F-1.1
F-0.11
tp322
a(F16.100000000000094
F0.06
F-1.1
F-0.14
tp323
a(F16.150000000000095
F0.08
F-1.11
F-0.11
tp324
a(F16.200000000000095
F0.12
F-1.09
F-0.1
tp325
a(F16.250000000000096
F0.11
F-1.06
F-0.13
tp326
a(F16.300000000000097
F0.06
F-1.07
F-0.15
tp327
a(F16.350000000000097
F0.04
F-1.13
F-0.15
tp328
a(F16.400000000000098
F-0.01
F-1.21
F-0.06
tp329
a(F16.4500000000001
F0.04
F-1.27
F-0.03
tp330
a(F16.5000000000001
F0.06
F-1.28
F-0.08
tp331
a(F16.5500000000001
F0.05
F-1.26
F-0.04
tp332
a(F16.6000000000001
F-0.0
F-1.22
F-0.01
tp333
a(F16.6500000000001
F0.02
F-1.15
F-0.05
tp334
a(F16.700000000000102
F-0.01
F-1.1
F-0.02
tp335
a(F16.750000000000103
F0.04
F-1.05
F-0.01
tp336
a(F16.800000000000104
F0.06
F-1.01
F-0.03
tp337
a(F16.850000000000104
F0.05
F-1.03
F0.04
tp338
a(F16.900000000000105
F0.04
F-1.02
F0.13
tp339
a(F16.950000000000106
F0.02
F-1.02
F0.2
tp340
a(F17.000000000000107
F0.04
F-0.94
F0.11
tp341
a(F17.050000000000107
F0.08
F-0.88
F0.08
tp342
a(F17.100000000000108
F0.06
F-0.89
F0.07
tp343
a(F17.15000000000011
F0.05
F-0.91
F0.02
tp344
a(F17.20000000000011
F0.1
F-0.93
F0.01
tp345
a(F17.25000000000011
F0.16
F-0.93
F-0.03
tp346
a(F17.30000000000011
F0.18
F-0.86
F-0.09
tp347
a(F17.35000000000011
F0.13
F-0.86
F-0.06
tp348
a(F17.400000000000112
F0.1
F-0.88
F-0.06
tp349
a(F17.450000000000113
F0.17
F-0.85
F-0.07
tp350
a(F17.500000000000114
F0.12
F-0.91
F-0.07
tp351
a(F17.550000000000114
F0.2
F-0.9
F-0.07
tp352
a(F17.600000000000115
F0.15
F-0.91
F0.05
tp353
a(F17.650000000000116
F0.19
F-0.96
F-0.01
tp354
a(F17.700000000000117
F0.23
F-1.0
F0.02
tp355
a(F17.750000000000117
F0.24
F-1.04
F-0.03
tp356
a(F17.800000000000118
F0.23
F-1.11
F-0.02
tp357
a(F17.85000000000012
F0.2
F-1.14
F-0.08
tp358
a(F17.90000000000012
F0.22
F-1.22
F-0.05
tp359
a(F17.95000000000012
F0.23
F-1.29
F-0.01
tp360
a(F18.00000000000012
F0.29
F-1.26
F0.04
tp361
a(F18.05000000000012
F0.27
F-1.16
F0.04
tp362
a(F18.100000000000122
F0.22
F-1.06
F-0.02
tp363
a(F18.150000000000123
F0.1
F-1.12
F-0.06
tp364
a(F18.200000000000124
F0.07
F-1.21
F-0.06
tp365
a(F18.250000000000124
F0.09
F-1.27
F-0.05
tp366
a(F18.300000000000125
F0.02
F-1.23
F0.02
tp367
a(F18.350000000000126
F0.06
F-1.15
F0.03
tp368
a(F18.400000000000126
F0.0
F-1.06
F0.05
tp369
a(F18.450000000000127
F-0.03
F-0.98
F0.06
tp370
a(F18.500000000000128
F0.04
F-0.89
F0.01
tp371
a(F18.55000000000013
F0.01
F-0.83
F0.02
tp372
a(F18.60000000000013
F0.03
F-0.76
F0.04
tp373
a(F18.65000000000013
F0.14
F-0.72
F-0.11
tp374
a(F18.70000000000013
F0.12
F-0.78
F-0.06
tp375
a(F18.75000000000013
F0.11
F-0.81
F-0.15
tp376
a(F18.800000000000132
F0.17
F-0.8
F-0.14
tp377
a(F18.850000000000133
F0.18
F-0.81
F-0.17
tp378
a(F18.900000000000134
F0.17
F-0.86
F-0.09
tp379
a(F18.950000000000134
F0.18
F-0.84
F-0.06
tp380
a(F19.000000000000135
F0.02
F-0.88
F-0.07
tp381
a(F19.050000000000136
F0.07
F-0.93
F-0.11
tp382
a(F19.100000000000136
F0.06
F-0.94
F-0.16
tp383
a(F19.150000000000137
F0.18
F-1.03
F-0.16
tp384
a(F19.200000000000138
F0.05
F-1.03
F-0.27
tp385
a(F19.25000000000014
F0.09
F-1.08
F-0.08
tp386
a(F19.30000000000014
F0.09
F-1.09
F-0.07
tp387
a(F19.35000000000014
F0.1
F-1.13
F-0.08
tp388
a(F19.40000000000014
F0.03
F-1.23
F0.09
tp389
a(F19.45000000000014
F0.15
F-1.3
F0.01
tp390
a(F19.500000000000142
F0.17
F-1.41
F0.07
tp391
a(F19.550000000000143
F0.18
F-1.41
F-0.01
tp392
a(F19.600000000000144
F0.1
F-1.4
F-0.03
tp393
a(F19.650000000000144
F0.12
F-1.36
F-0.13
tp394
a(F19.700000000000145
F0.05
F-1.33
F-0.04
tp395
a(F19.750000000000146
F0.04
F-1.25
F0.02
tp396
a(F19.800000000000146
F0.05
F-1.17
F0.02
tp397
a(F19.850000000000147
F0.08
F-1.14
F0.07
tp398
a(F19.900000000000148
F0.07
F-1.17
F0.09
tp399
a(F19.95000000000015
F0.11
F-1.1
F0.05
tp400
a(F20.00000000000015
F0.08
F-0.93
F0.06
tp401
a(F20.05000000000015
F0.04
F-0.81
F0.05
tp402
a(F20.10000000000015
F-0.01
F-0.74
F0.11
tp403
a(F20.15000000000015
F0.01
F-0.75
F-0.02
tp404
a(F20.200000000000152
F0.11
F-0.78
F-0.01
tp405
a(F20.250000000000153
F0.19
F-0.86
F-0.02
tp406
a(F20.300000000000153
F0.27
F-0.84
F-0.05
tp407
a(F20.350000000000154
F0.21
F-0.85
F-0.07
tp408
a(F20.400000000000155
F0.13
F-0.84
F-0.1
tp409
a(F20.450000000000156
F0.09
F-0.8
F-0.12
tp410
a(F20.500000000000156
F0.2
F-0.78
F-0.09
tp411
a(F20.550000000000157
F0.15
F-0.82
F-0.05
tp412
a(F20.600000000000158
F0.2
F-0.87
F-0.05
tp413
a(F20.65000000000016
F0.03
F-0.91
F0.08
tp414
a(F20.70000000000016
F0.14
F-0.94
F-0.19
tp415
a(F20.75000000000016
F0.09
F-1.06
F-0.03
tp416
a(F20.80000000000016
F0.19
F-1.02
F-0.16
tp417
a(F20.85000000000016
F0.15
F-1.1
F0.06
tp418
a(F20.900000000000162
F0.24
F-1.07
F-0.08
tp419
a(F20.950000000000163
F0.07
F-1.15
F0.23
tp420
a(F21.000000000000163
F0.22
F-1.08
F-0.07
tp421
a(F21.050000000000164
F0.25
F-1.09
F-0.04
tp422
a(F21.100000000000165
F0.23
F-1.16
F-0.01
tp423
a(F21.150000000000166
F0.19
F-1.22
F-0.08
tp424
a(F21.200000000000166
F0.09
F-1.26
F-0.15
tp425
a(F21.250000000000167
F0.05
F-1.34
F-0.11
tp426
a(F21.300000000000168
F0.06
F-1.35
F-0.05
tp427
a(F21.35000000000017
F0.09
F-1.31
F-0.08
tp428
a(F21.40000000000017
F0.12
F-1.25
F-0.05
tp429
a(F21.45000000000017
F0.1
F-1.22
F0.02
tp430
a(F21.50000000000017
F0.16
F-1.17
F0.04
tp431
a(F21.55000000000017
F0.17
F-1.15
F0.09
tp432
a(F21.600000000000172
F0.18
F-1.09
F0.03
tp433
a(F21.650000000000173
F0.16
F-1.06
F0.01
tp434
a(F21.700000000000173
F0.07
F-1.03
F-0.02
tp435
a(F21.750000000000174
F0.09
F-1.0
F-0.01
tp436
a(F21.800000000000175
F0.09
F-0.99
F0.03
tp437
a(F21.850000000000176
F0.16
F-0.91
F-0.05
tp438
a(F21.900000000000176
F0.05
F-0.86
F0.05
tp439
a(F21.950000000000177
F0.15
F-0.79
F-0.05
tp440
a(F22.000000000000178
F0.14
F-0.79
F-0.07
tp441
a(F22.05000000000018
F0.25
F-0.78
F-0.14
tp442
a(F22.10000000000018
F0.22
F-0.79
F-0.2
tp443
a(F22.15000000000018
F0.16
F-0.83
F-0.18
tp444
a(F22.20000000000018
F0.19
F-0.87
F-0.17
tp445
a(F22.25000000000018
F0.16
F-0.88
F-0.11
tp446
a(F22.300000000000182
F0.24
F-0.89
F-0.15
tp447
a(F22.350000000000183
F0.08
F-0.88
F-0.11
tp448
a(F22.400000000000183
F0.2
F-0.92
F-0.01
tp449
a(F22.450000000000184
F0.0
F-0.98
F-0.08
tp450
a(F22.500000000000185
F0.17
F-0.99
F-0.13
tp451
a(F22.550000000000185
F0.06
F-1.06
F-0.12
tp452
a(F22.600000000000186
F0.28
F-1.1
F-0.06
tp453
a(F22.650000000000187
F0.11
F-1.11
F-0.09
tp454
a(F22.700000000000188
F0.19
F-1.09
F-0.16
tp455
a(F22.75000000000019
F0.18
F-1.13
F-0.09
tp456
a(F22.80000000000019
F0.18
F-1.12
F-0.08
tp457
a(F22.85000000000019
F0.21
F-1.1
F-0.2
tp458
a(F22.90000000000019
F0.21
F-1.12
F-0.18
tp459
a(F22.95000000000019
F0.26
F-1.17
F-0.26
tp460
a(F23.000000000000192
F0.25
F-1.22
F-0.23
tp461
a(F23.050000000000193
F0.24
F-1.21
F-0.28
tp462
a(F23.100000000000193
F0.19
F-1.23
F-0.24
tp463
a(F23.150000000000194
F0.14
F-1.23
F-0.2
tp464
a(F23.200000000000195
F0.11
F-1.26
F-0.13
tp465
a(F23.250000000000195
F0.12
F-1.22
F-0.1
tp466
a(F23.300000000000196
F0.11
F-1.2
F-0.06
tp467
a(F23.350000000000197
F0.1
F-1.15
F-0.07
tp468
a(F23.400000000000198
F0.13
F-1.13
F-0.09
tp469
a(F23.4500000000002
F0.17
F-1.09
F-0.11
tp470
a(F23.5000000000002
F0.14
F-1.08
F-0.08
tp471
a(F23.5500000000002
F0.13
F-1.02
F-0.09
tp472
a(F23.6000000000002
F0.14
F-0.99
F-0.09
tp473
a(F23.6500000000002
F0.12
F-0.99
F0.01
tp474
a(F23.700000000000202
F0.13
F-1.01
F-0.01
tp475
a(F23.750000000000203
F0.08
F-1.0
F0.02
tp476
a(F23.800000000000203
F0.08
F-0.96
F0.05
tp477
a(F23.850000000000204
F0.09
F-0.91
F0.01
tp478
a(F23.900000000000205
F0.11
F-0.84
F-0.02
tp479
a(F23.950000000000205
F0.15
F-0.83
F0.04
tp480
a(F24.000000000000206
F0.27
F-0.77
F-0.06
tp481
a(F24.050000000000207
F0.28
F-0.8
F-0.08
tp482
a(F24.100000000000207
F0.23
F-0.87
F-0.0
tp483
a(F24.150000000000208
F0.27
F-0.88
F-0.03
tp484
a(F24.20000000000021
F0.3
F-0.85
F-0.07
tp485
a(F24.25000000000021
F0.29
F-0.9
F-0.06
tp486
a(F24.30000000000021
F0.23
F-0.86
F-0.02
tp487
a(F24.35000000000021
F0.2
F-0.83
F-0.07
tp488
a(F24.40000000000021
F0.03
F-0.88
F0.07
tp489
a(F24.450000000000212
F0.12
F-0.98
F-0.08
tp490
a(F24.500000000000213
F0.17
F-1.03
F-0.16
tp491
a(F24.550000000000214
F0.17
F-1.08
F-0.11
tp492
a(F24.600000000000215
F0.22
F-1.09
F-0.2
tp493
a(F24.650000000000215
F0.22
F-1.08
F-0.15
tp494
a(F24.700000000000216
F0.3
F-1.06
F-0.13
tp495
a(F24.750000000000217
F0.32
F-1.07
F-0.2
tp496
a(F24.800000000000217
F0.27
F-1.09
F-0.14
tp497
a(F24.850000000000218
F0.3
F-1.09
F-0.18
tp498
a(F24.90000000000022
F0.3
F-1.11
F-0.14
tp499
a(F24.95000000000022
F0.32
F-1.17
F-0.11
tp500
a(F25.00000000000022
F0.34
F-1.18
F-0.17
tp501
a(F25.05000000000022
F0.32
F-1.22
F-0.19
tp502
a(F25.10000000000022
F0.31
F-1.27
F-0.17
tp503
a(F25.150000000000222
F0.33
F-1.26
F-0.17
tp504
a(F25.200000000000223
F0.33
F-1.21
F-0.16
tp505
a(F25.250000000000224
F0.29
F-1.19
F-0.11
tp506
a(F25.300000000000225
F0.28
F-1.15
F-0.12
tp507
a(F25.350000000000225
F0.25
F-1.13
F-0.07
tp508
a(F25.400000000000226
F0.26
F-1.11
F-0.08
tp509
a(F25.450000000000227
F0.24
F-1.1
F-0.05
tp510
a(F25.500000000000227
F0.22
F-1.09
F-0.03
tp511
a(F25.550000000000228
F0.23
F-1.09
F-0.01
tp512
a(F25.60000000000023
F0.21
F-1.06
F-0.04
tp513
a(F25.65000000000023
F0.2
F-1.02
F-0.08
tp514
a(F25.70000000000023
F0.2
F-0.99
F0.03
tp515
a(F25.75000000000023
F0.21
F-0.93
F-0.0
tp516
a(F25.80000000000023
F0.22
F-0.89
F-0.03
tp517
a(F25.850000000000232
F0.23
F-0.86
F-0.06
tp518
a(F25.900000000000233
F0.24
F-0.8
F-0.08
tp519
a(F25.950000000000234
F0.32
F-0.83
F-0.03
tp520
a(F26.000000000000234
F0.36
F-0.78
F-0.1
tp521
a(F26.050000000000235
F0.34
F-0.83
F-0.08
tp522
a(F26.100000000000236
F0.3
F-0.83
F-0.11
tp523
a(F26.150000000000237
F0.3
F-0.88
F-0.15
tp524
a(F26.200000000000237
F0.34
F-0.85
F-0.14
tp525
a(F26.250000000000238
F0.4
F-0.89
F-0.21
tp526
a(F26.30000000000024
F0.34
F-0.88
F-0.08
tp527
a(F26.35000000000024
F0.3
F-0.85
F-0.07
tp528
a(F26.40000000000024
F0.26
F-0.88
F0.11
tp529
a(F26.45000000000024
F0.31
F-0.8
F-0.05
tp530
a(F26.50000000000024
F0.31
F-0.84
F0.02
tp531
a(F26.550000000000242
F0.24
F-0.83
F-0.09
tp532
a(F26.600000000000243
F0.24
F-0.95
F-0.01
tp533
a(F26.650000000000244
F0.31
F-1.03
F-0.07
tp534
a(F26.700000000000244
F0.17
F-1.12
F0.01
tp535
a(F26.750000000000245
F0.25
F-1.16
F0.01
tp536
a(F26.800000000000246
F0.23
F-1.19
F0.05
tp537
a(F26.850000000000247
F0.22
F-1.18
F-0.04
tp538
a(F26.900000000000247
F0.22
F-1.19
F-0.04
tp539
a(F26.950000000000248
F0.32
F-1.14
F-0.07
tp540
a(F27.00000000000025
F0.4
F-1.1
F-0.06
tp541
a(F27.05000000000025
F0.35
F-1.08
F-0.1
tp542
a(F27.10000000000025
F0.37
F-1.11
F-0.13
tp543
a(F27.15000000000025
F0.37
F-1.13
F-0.14
tp544
a(F27.20000000000025
F0.35
F-1.16
F-0.09
tp545
a(F27.250000000000252
F0.31
F-1.16
F-0.07
tp546
a(F27.300000000000253
F0.27
F-1.13
F-0.08
tp547
a(F27.350000000000254
F0.29
F-1.14
F-0.1
tp548
a(F27.400000000000254
F0.3
F-1.19
F-0.07
tp549
a(F27.450000000000255
F0.28
F-1.23
F-0.04
tp550
a(F27.500000000000256
F0.26
F-1.23
F-0.03
tp551
a(F27.550000000000257
F0.25
F-1.21
F-0.02
tp552
a(F27.600000000000257
F0.23
F-1.2
F-0.0
tp553
a(F27.650000000000258
F0.2
F-1.17
F-0.01
tp554
a(F27.70000000000026
F0.26
F-1.07
F-0.08
tp555
a(F27.75000000000026
F0.25
F-0.98
F-0.04
tp556
a(F27.80000000000026
F0.23
F-0.9
F-0.06
tp557
a(F27.85000000000026
F0.18
F-0.87
F0.01
tp558
a(F27.90000000000026
F0.22
F-0.77
F-0.06
tp559
a(F27.950000000000262
F0.19
F-0.77
F0.02
tp560
a(F28.000000000000263
F0.21
F-0.81
F0.01
tp561
a(F28.050000000000264
F0.26
F-0.85
F-0.03
tp562
a(F28.100000000000264
F0.22
F-0.87
F-0.05
tp563
a(F28.150000000000265
F0.24
F-0.88
F-0.04
tp564
a(F28.200000000000266
F0.25
F-0.9
F-0.11
tp565
a(F28.250000000000266
F0.23
F-0.9
F-0.09
tp566
a(F28.300000000000267
F0.27
F-0.93
F-0.09
tp567
a(F28.350000000000268
F0.27
F-0.89
F-0.08
tp568
a(F28.40000000000027
F0.27
F-0.86
F-0.06
tp569
a(F28.45000000000027
F0.24
F-0.89
F-0.02
tp570
a(F28.50000000000027
F0.23
F-0.9
F-0.05
tp571
a(F28.55000000000027
F0.18
F-0.93
F-0.02
tp572
a(F28.60000000000027
F0.19
F-0.96
F0.03
tp573
a(F28.650000000000272
F0.16
F-0.95
F0.01
tp574
a(F28.700000000000273
F0.1
F-1.02
F-0.06
tp575
a(F28.750000000000274
F0.1
F-1.05
F-0.08
tp576
a(F28.800000000000274
F0.12
F-1.04
F-0.05
tp577
a(F28.850000000000275
F0.21
F-1.07
F-0.15
tp578
a(F28.900000000000276
F0.26
F-1.14
F-0.09
tp579
a(F28.950000000000276
F0.27
F-1.14
F-0.08
tp580
a(F29.000000000000277
F0.29
F-1.14
F-0.11
tp581
a(F29.050000000000278
F0.38
F-1.15
F-0.21
tp582
a(F29.10000000000028
F0.3
F-1.16
F-0.15
tp583
a(F29.15000000000028
F0.32
F-1.18
F-0.18
tp584
a(F29.20000000000028
F0.32
F-1.18
F-0.23
tp585
a(F29.25000000000028
F0.33
F-1.19
F-0.24
tp586
a(F29.30000000000028
F0.31
F-1.18
F-0.2
tp587
a(F29.350000000000282
F0.33
F-1.18
F-0.19
tp588
a(F29.400000000000283
F0.37
F-1.18
F-0.2
tp589
a(F29.450000000000284
F0.32
F-1.18
F-0.16
tp590
a(F29.500000000000284
F0.25
F-1.19
F0.0
tp591
a(F29.550000000000285
F0.23
F-1.16
F-0.05
tp592
a(F29.600000000000286
F0.19
F-1.18
F0.01
tp593
a(F29.650000000000286
F0.22
F-1.09
F-0.05
tp594
a(F29.700000000000287
F0.2
F-1.11
F0.03
tp595
a(F29.750000000000288
F0.24
F-1.02
F-0.03
tp596
a(F29.80000000000029
F0.2
F-1.01
F0.09
tp597
a(F29.85000000000029
F0.16
F-0.98
F0.08
tp598
a(F29.90000000000029
F0.14
F-0.97
F0.11
tp599
a(F29.95000000000029
F0.12
F-0.91
F0.08
tp600
a(F30.00000000000029
F0.1
F-0.89
F0.15
tp601
a(F30.050000000000292
F0.2
F-0.83
F0.02
tp602
a(F30.100000000000293
F0.16
F-0.78
F-0.01
tp603
a(F30.150000000000293
F0.2
F-0.77
F-0.08
tp604
a(F30.200000000000294
F0.2
F-0.83
F-0.13
tp605
a(F30.250000000000295
F0.23
F-0.9
F-0.09
tp606
a(F30.300000000000296
F0.27
F-0.91
F-0.05
tp607
a(F30.350000000000296
F0.28
F-0.93
F-0.05
tp608
a(F30.400000000000297
F0.21
F-0.9
F-0.0
tp609
a(F30.450000000000298
F0.21
F-0.92
F-0.0
tp610
a(F30.5000000000003
F0.11
F-0.88
F0.05
tp611
a(F30.5500000000003
F0.16
F-0.91
F-0.01
tp612
a(F30.6000000000003
F0.19
F-0.93
F-0.03
tp613
a(F30.6500000000003
F0.12
F-0.96
F0.03
tp614
a(F30.7000000000003
F0.19
F-0.99
F0.01
tp615
a(F30.750000000000302
F0.28
F-1.03
F-0.03
tp616
a(F30.800000000000303
F0.27
F-1.06
F-0.03
tp617
a(F30.850000000000303
F0.18
F-1.1
F-0.06
tp618
a(F30.900000000000304
F0.2
F-1.16
F-0.0
tp619
a(F30.950000000000305
F0.26
F-1.15
F-0.01
tp620
a(F31.000000000000306
F0.3
F-1.14
F-0.05
tp621
a(F31.050000000000306
F0.35
F-1.14
F-0.07
tp622
a(F31.100000000000307
F0.36
F-1.12
F-0.07
tp623
a(F31.150000000000308
F0.35
F-1.14
F-0.11
tp624
a(F31.20000000000031
F0.33
F-1.17
F-0.08
tp625
a(F31.25000000000031
F0.33
F-1.16
F-0.1
tp626
a(F31.30000000000031
F0.33
F-1.14
F-0.11
tp627
a(F31.35000000000031
F0.33
F-1.13
F-0.11
tp628
a(F31.40000000000031
F0.32
F-1.13
F-0.1
tp629
a(F31.450000000000312
F0.31
F-1.14
F-0.05
tp630
a(F31.500000000000313
F0.32
F-1.13
F-0.06
tp631
a(F31.550000000000313
F0.3
F-1.14
F-0.02
tp632
a(F31.600000000000314
F0.29
F-1.1
F0.02
tp633
a(F31.650000000000315
F0.29
F-1.1
F0.05
tp634
a(F31.700000000000315
F0.29
F-1.07
F0.0
tp635
a(F31.750000000000316
F0.25
F-1.05
F0.03
tp636
a(F31.800000000000317
F0.26
F-1.03
F0.03
tp637
a(F31.850000000000318
F0.24
F-0.96
F0.0
tp638
a(F31.90000000000032
F0.17
F-0.97
F0.06
tp639
a(F31.95000000000032
F0.21
F-0.91
F-0.03
tp640
a(F32.00000000000032
F0.23
F-0.86
F0.0
tp641
a(F32.05000000000032
F0.27
F-0.85
F-0.01
tp642
a(F32.100000000000314
F0.37
F-0.81
F-0.06
tp643
a(F32.15000000000031
F0.35
F-0.85
F-0.02
tp644
a(F32.20000000000031
F0.36
F-0.87
F-0.02
tp645
a(F32.250000000000306
F0.35
F-0.86
F-0.06
tp646
a(F32.3000000000003
F0.36
F-0.89
F-0.07
tp647
a(F32.3500000000003
F0.38
F-0.89
F-0.02
tp648
a(F32.4000000000003
F0.39
F-0.89
F-0.03
tp649
a(F32.450000000000294
F0.39
F-0.87
F-0.06
tp650
a(F32.50000000000029
F0.38
F-0.88
F-0.04
tp651
a(F32.55000000000029
F0.31
F-0.89
F0.01
tp652
a(F32.600000000000286
F0.31
F-0.86
F-0.0
tp653
a(F32.65000000000028
F0.3
F-0.93
F-0.0
tp654
a(F32.70000000000028
F0.22
F-0.93
F0.01
tp655
a(F32.75000000000028
F0.28
F-1.04
F0.03
tp656
a(F32.800000000000274
F0.23
F-1.05
F0.05
tp657
a(F32.85000000000027
F0.27
F-1.1
F0.07
tp658
a(F32.90000000000027
F0.23
F-1.1
F0.02
tp659
a(F32.950000000000266
F0.32
F-1.07
F-0.02
tp660
a(F33.00000000000026
F0.36
F-1.11
F-0.01
tp661
a(F33.05000000000026
F0.38
F-1.12
F-0.05
tp662
a(F33.10000000000026
F0.43
F-1.06
F-0.09
tp663
a(F33.150000000000254
F0.42
F-1.08
F-0.03
tp664
a(F33.20000000000025
F0.41
F-1.1
F-0.04
tp665
a(F33.25000000000025
F0.4
F-1.14
F-0.05
tp666
a(F33.300000000000246
F0.35
F-1.18
F-0.0
tp667
a(F33.35000000000024
F0.34
F-1.19
F0.01
tp668
a(F33.40000000000024
F0.33
F-1.18
F0.01
tp669
a(F33.45000000000024
F0.38
F-1.13
F-0.05
tp670
a(F33.500000000000234
F0.38
F-1.16
F-0.03
tp671
a(F33.55000000000023
F0.41
F-1.18
F-0.03
tp672
a(F33.60000000000023
F0.41
F-1.18
F-0.01
tp673
a(F33.650000000000226
F0.38
F-1.22
F0.03
tp674
a(F33.70000000000022
F0.38
F-1.17
F0.01
tp675
a(F33.75000000000022
F0.36
F-1.13
F-0.0
tp676
a(F33.80000000000022
F0.36
F-1.08
F-0.04
tp677
a(F33.850000000000215
F0.31
F-1.03
F-0.03
tp678
a(F33.90000000000021
F0.29
F-1.02
F0.0
tp679
a(F33.95000000000021
F0.31
F-0.98
F-0.01
tp680
a(F34.000000000000206
F0.3
F-0.92
F0.0
tp681
a(F34.0500000000002
F0.29
F-0.92
F-0.02
tp682
a(F34.1000000000002
F0.29
F-0.91
F-0.01
tp683
a(F34.1500000000002
F0.27
F-0.82
F-0.08
tp684
a(F34.200000000000195
F0.25
F-0.83
F-0.01
tp685
a(F34.25000000000019
F0.34
F-0.78
F-0.05
tp686
a(F34.30000000000019
F0.36
F-0.86
F-0.0
tp687
a(F34.350000000000186
F0.35
F-0.89
F-0.04
tp688
a(F34.40000000000018
F0.34
F-0.95
F-0.0
tp689
a(F34.45000000000018
F0.4
F-0.96
F-0.01
tp690
a(F34.50000000000018
F0.41
F-0.96
F-0.0
tp691
a(F34.550000000000175
F0.44
F-0.96
F0.03
tp692
a(F34.60000000000017
F0.39
F-0.88
F0.05
tp693
a(F34.65000000000017
F0.29
F-0.88
F0.12
tp694
a(F34.700000000000166
F0.36
F-0.92
F0.04
tp695
a(F34.75000000000016
F0.3
F-0.94
F0.07
tp696
a(F34.80000000000016
F0.28
F-0.9
F0.04
tp697
a(F34.85000000000016
F0.31
F-0.94
F0.05
tp698
a(F34.900000000000155
F0.32
F-0.96
F-0.17
tp699
a(F34.95000000000015
F0.4
F-1.0
F-0.21
tp700
a(F35.00000000000015
F0.28
F-1.03
F-0.12
tp701
a(F35.050000000000146
F0.32
F-1.05
F-0.06
tp702
a(F35.10000000000014
F0.33
F-1.12
F-0.07
tp703
a(F35.15000000000014
F0.36
F-1.12
F-0.01
tp704
a(F35.20000000000014
F0.36
F-1.1
F-0.06
tp705
a(F35.250000000000135
F0.38
F-1.06
F-0.05
tp706
a(F35.30000000000013
F0.48
F-1.06
F-0.05
tp707
a(F35.35000000000013
F0.47
F-1.07
F-0.08
tp708
a(F35.40000000000013
F0.46
F-1.07
F-0.14
tp709
a(F35.450000000000124
F0.45
F-1.1
F-0.16
tp710
a(F35.50000000000012
F0.47
F-1.12
F-0.15
tp711
a(F35.55000000000012
F0.45
F-1.17
F-0.08
tp712
a(F35.600000000000115
F0.44
F-1.17
F-0.11
tp713
a(F35.65000000000011
F0.42
F-1.15
F-0.11
tp714
a(F35.70000000000011
F0.44
F-1.15
F-0.13
tp715
a(F35.75000000000011
F0.44
F-1.2
F-0.08
tp716
a(F35.800000000000104
F0.4
F-1.23
F0.01
tp717
a(F35.8500000000001
F0.4
F-1.19
F0.02
tp718
a(F35.9000000000001
F0.4
F-1.13
F0.04
tp719
a(F35.950000000000095
F0.4
F-1.1
F0.05
tp720
a(F36.00000000000009
F0.41
F-1.05
F-0.02
tp721
a(F36.05000000000009
F0.36
F-0.97
F-0.04
tp722
a(F36.10000000000009
F0.33
F-0.99
F-0.04
tp723
a(F36.150000000000084
F0.26
F-0.91
F-0.07
tp724
a(F36.20000000000008
F0.29
F-0.86
F-0.12
tp725
a(F36.25000000000008
F0.24
F-0.88
F-0.02
tp726
a(F36.300000000000075
F0.29
F-0.86
F-0.06
tp727
a(F36.35000000000007
F0.34
F-0.8
F-0.12
tp728
a(F36.40000000000007
F0.41
F-0.72
F-0.11
tp729
a(F36.45000000000007
F0.32
F-0.77
F-0.09
tp730
a(F36.500000000000064
F0.27
F-0.82
F-0.1
tp731
a(F36.55000000000006
F0.31
F-0.84
F-0.12
tp732
a(F36.60000000000006
F0.35
F-0.88
F-0.15
tp733
a(F36.650000000000055
F0.42
F-0.87
F-0.16
tp734
a(F36.70000000000005
F0.42
F-0.84
F-0.19
tp735
a(F36.75000000000005
F0.36
F-0.84
F-0.07
tp736
a(F36.80000000000005
F0.38
F-0.88
F-0.15
tp737
a(F36.850000000000044
F0.39
F-0.88
F0.0
tp738
a(F36.90000000000004
F0.28
F-0.87
F-0.12
tp739
a(F36.95000000000004
F0.22
F-0.93
F0.05
tp740
a(F37.000000000000036
F0.22
F-0.95
F-0.04
tp741
a(F37.05000000000003
F0.26
F-0.99
F-0.13
tp742
a(F37.10000000000003
F0.21
F-1.05
F-0.04
tp743
a(F37.15000000000003
F0.35
F-1.07
F-0.15
tp744
a(F37.200000000000024
F0.35
F-1.14
F-0.07
tp745
a(F37.25000000000002
F0.43
F-1.13
F-0.05
tp746
a(F37.30000000000002
F0.38
F-1.14
F-0.03
tp747
a(F37.350000000000016
F0.4
F-1.13
F-0.09
tp748
a(F37.40000000000001
F0.34
F-1.15
F-0.04
tp749
a(F37.45000000000001
F0.31
F-1.12
F-0.07
tp750
a(F37.50000000000001
F0.31
F-1.12
F-0.1
tp751
a(F37.550000000000004
F0.32
F-1.13
F-0.1
tp752
a(F37.6
F0.34
F-1.13
F-0.1
tp753
a(F37.65
F0.37
F-1.12
F-0.08
tp754
a(F37.699999999999996
F0.37
F-1.12
F-0.08
tp755
a(F37.74999999999999
F0.37
F-1.12
F-0.1
tp756
a(F37.79999999999999
F0.34
F-1.12
F-0.08
tp757
a(F37.84999999999999
F0.33
F-1.15
F-0.06
tp758
a(F37.899999999999984
F0.31
F-1.16
F-0.02
tp759
a(F37.94999999999998
F0.31
F-1.13
F-0.02
tp760
a(F37.99999999999998
F0.26
F-1.14
F0.04
tp761
a(F38.049999999999976
F0.27
F-1.11
F0.05
tp762
a(F38.09999999999997
F0.23
F-1.09
F0.05
tp763
a(F38.14999999999997
F0.26
F-1.03
F-0.01
tp764
a(F38.19999999999997
F0.29
F-1.03
F-0.03
tp765
a(F38.249999999999964
F0.27
F-1.0
F-0.03
tp766
a(F38.29999999999996
F0.23
F-1.0
F0.02
tp767
a(F38.34999999999996
F0.18
F-0.96
F0.04
tp768
a(F38.399999999999956
F0.18
F-0.92
F-0.0
tp769
a(F38.44999999999995
F0.27
F-0.89
F-0.07
tp770
a(F38.49999999999995
F0.3
F-0.92
F-0.07
tp771
a(F38.54999999999995
F0.39
F-0.83
F-0.07
tp772
a(F38.599999999999945
F0.45
F-0.8
F-0.12
tp773
a(F38.64999999999994
F0.34
F-0.87
F-0.03
tp774
a(F38.69999999999994
F0.32
F-0.88
F-0.09
tp775
a(F38.749999999999936
F0.31
F-0.89
F-0.07
tp776
a(F38.79999999999993
F0.32
F-0.92
F-0.05
tp777
a(F38.84999999999993
F0.36
F-0.93
F-0.09
tp778
a(F38.89999999999993
F0.41
F-0.92
F-0.07
tp779
a(F38.949999999999925
F0.41
F-0.89
F-0.08
tp780
a(F38.99999999999992
F0.41
F-0.88
F-0.06
tp781
a(F39.04999999999992
F0.32
F-0.87
F-0.06
tp782
a(F39.099999999999916
F0.36
F-0.91
F-0.04
tp783
a(F39.14999999999991
F0.32
F-0.92
F-0.01
tp784
a(F39.19999999999991
F0.35
F-0.93
F0.0
tp785
a(F39.24999999999991
F0.23
F-1.01
F0.01
tp786
a(F39.299999999999905
F0.25
F-1.02
F-0.02
tp787
a(F39.3499999999999
F0.22
F-1.06
F-0.09
tp788
a(F39.3999999999999
F0.3
F-1.01
F-0.11
tp789
a(F39.449999999999896
F0.32
F-1.05
F-0.05
tp790
a(F39.49999999999989
F0.34
F-1.08
F-0.05
tp791
a(F39.54999999999989
F0.35
F-1.09
F-0.08
tp792
a(F39.59999999999989
F0.4
F-1.08
F-0.1
tp793
a(F39.649999999999885
F0.46
F-1.08
F-0.14
tp794
a(F39.69999999999988
F0.46
F-1.08
F-0.1
tp795
a(F39.74999999999988
F0.46
F-1.11
F-0.13
tp796
a(F39.799999999999876
F0.46
F-1.12
F-0.16
tp797
a(F39.84999999999987
F0.44
F-1.11
F-0.18
tp798
a(F39.89999999999987
F0.39
F-1.1
F-0.16
tp799
a(F39.94999999999987
F0.36
F-1.09
F-0.14
tp800
a(F39.999999999999865
F0.38
F-1.1
F-0.11
tp801
a(F40.04999999999986
F0.39
F-1.1
F-0.11
tp802
a(F40.09999999999986
F0.39
F-1.14
F-0.1
tp803
a(F40.14999999999986
F0.39
F-1.15
F-0.06
tp804
a(F40.199999999999854
F0.39
F-1.12
F-0.05
tp805
a(F40.24999999999985
F0.37
F-1.1
F-0.04
tp806
a(F40.29999999999985
F0.35
F-1.07
F-0.0
tp807
a(F40.349999999999845
F0.36
F-1.03
F-0.03
tp808
a(F40.39999999999984
F0.36
F-1.02
F0.01
tp809
a(F40.44999999999984
F0.35
F-1.01
F-0.01
tp810
a(F40.49999999999984
F0.34
F-1.04
F-0.03
tp811
a(F40.549999999999834
F0.33
F-1.02
F-0.07
tp812
a(F40.59999999999983
F0.37
F-0.97
F-0.1
tp813
a(F40.64999999999983
F0.34
F-0.99
F-0.08
tp814
a(F40.699999999999825
F0.37
F-0.95
F-0.09
tp815
a(F40.74999999999982
F0.31
F-1.0
F-0.03
tp816
a(F40.79999999999982
F0.4
F-0.91
F-0.05
tp817
a(F40.84999999999982
F0.36
F-0.87
F-0.05
tp818
a(F40.899999999999814
F0.37
F-0.87
F-0.02
tp819
a(F40.94999999999981
F0.35
F-0.88
F-0.01
tp820
a(F40.99999999999981
F0.39
F-0.87
F-0.05
tp821
a(F41.049999999999805
F0.4
F-0.9
F-0.06
tp822
a(F41.0999999999998
F0.43
F-0.88
F-0.11
tp823
a(F41.1499999999998
F0.4
F-0.88
F-0.17
tp824
a(F41.1999999999998
F0.39
F-0.91
F-0.15
tp825
a(F41.249999999999794
F0.4
F-0.93
F-0.14
tp826
a(F41.29999999999979
F0.4
F-0.91
F-0.11
tp827
a(F41.34999999999979
F0.38
F-0.91
F-0.07
tp828
a(F41.399999999999785
F0.38
F-0.9
F-0.08
tp829
a(F41.44999999999978
F0.4
F-0.92
F-0.02
tp830
a(F41.49999999999978
F0.38
F-0.93
F-0.11
tp831
a(F41.54999999999978
F0.37
F-0.94
F-0.01
tp832
a(F41.599999999999774
F0.4
F-0.88
F-0.13
tp833
a(F41.64999999999977
F0.34
F-0.91
F0.07
tp834
a(F41.69999999999977
F0.34
F-0.9
F-0.12
tp835
a(F41.749999999999766
F0.38
F-1.06
F0.02
tp836
a(F41.79999999999976
F0.34
F-1.05
F0.02
tp837
a(F41.84999999999976
F0.44
F-1.05
F-0.01
tp838
a(F41.89999999999976
F0.35
F-1.05
F0.03
tp839
a(F41.949999999999754
F0.41
F-1.0
F-0.11
tp840
a(F41.99999999999975
F0.46
F-1.02
F-0.14
tp841
a(F42.04999999999975
F0.45
F-1.05
F-0.11
tp842
a(F42.099999999999746
F0.47
F-1.06
F-0.04
tp843
a(F42.14999999999974
F0.48
F-1.07
F-0.12
tp844
a(F42.19999999999974
F0.47
F-1.03
F-0.1
tp845
a(F42.24999999999974
F0.47
F-1.04
F-0.13
tp846
a(F42.299999999999734
F0.42
F-1.05
F-0.07
tp847
a(F42.34999999999973
F0.39
F-1.05
F-0.09
tp848
a(F42.39999999999973
F0.42
F-1.1
F-0.11
tp849
a(F42.449999999999726
F0.45
F-1.11
F-0.08
tp850
a(F42.49999999999972
F0.47
F-1.12
F-0.13
tp851
a(F42.54999999999972
F0.44
F-1.1
F-0.14
tp852
a(F42.59999999999972
F0.44
F-1.11
F-0.14
tp853
a(F42.649999999999714
F0.43
F-1.09
F-0.1
tp854
a(F42.69999999999971
F0.41
F-1.07
F-0.06
tp855
a(F42.74999999999971
F0.41
F-1.09
F-0.01
tp856
a(F42.799999999999706
F0.37
F-1.08
F0.01
tp857
a(F42.8499999999997
F0.34
F-1.08
F0.02
tp858
a(F42.8999999999997
F0.32
F-1.07
F0.03
tp859
a(F42.9499999999997
F0.35
F-1.05
F0.01
tp860
a(F42.999999999999694
F0.37
F-1.03
F0.02
tp861
a(F43.04999999999969
F0.37
F-1.01
F0.01
tp862
a(F43.09999999999969
F0.34
F-0.99
F0.0
tp863
a(F43.149999999999686
F0.32
F-0.98
F0.02
tp864
a(F43.19999999999968
F0.31
F-0.96
F-0.01
tp865
a(F43.24999999999968
F0.28
F-0.93
F-0.02
tp866
a(F43.29999999999968
F0.29
F-0.91
F-0.02
tp867
a(F43.349999999999675
F0.32
F-0.89
F-0.02
tp868
a(F43.39999999999967
F0.38
F-0.85
F-0.07
tp869
a(F43.44999999999967
F0.45
F-0.84
F-0.06
tp870
a(F43.499999999999666
F0.44
F-0.83
F-0.06
tp871
a(F43.54999999999966
F0.38
F-0.88
F-0.07
tp872
a(F43.59999999999966
F0.36
F-0.89
F-0.07
tp873
a(F43.64999999999966
F0.4
F-0.93
F-0.09
tp874
a(F43.699999999999655
F0.44
F-0.92
F-0.04
tp875
a(F43.74999999999965
F0.41
F-0.91
F-0.04
tp876
a(F43.79999999999965
F0.43
F-0.87
F-0.05
tp877
a(F43.849999999999646
F0.35
F-0.86
F0.05
tp878
a(F43.89999999999964
F0.34
F-0.9
F0.01
tp879
a(F43.94999999999964
F0.29
F-0.94
F-0.03
tp880
a(F43.99999999999964
F0.32
F-0.97
F0.05
tp881
a(F44.049999999999635
F0.3
F-0.99
F-0.05
tp882
a(F44.09999999999963
F0.39
F-1.01
F-0.04
tp883
a(F44.14999999999963
F0.37
F-0.99
F-0.07
tp884
a(F44.199999999999626
F0.42
F-1.05
F-0.01
tp885
a(F44.24999999999962
F0.39
F-1.04
F-0.02
tp886
a(F44.29999999999962
F0.43
F-1.05
F0.01
tp887
a(F44.34999999999962
F0.47
F-1.04
F-0.06
tp888
a(F44.399999999999615
F0.43
F-1.06
F-0.03
tp889
a(F44.44999999999961
F0.48
F-1.04
F-0.09
tp890
a(F44.49999999999961
F0.47
F-1.02
F-0.09
tp891
a(F44.549999999999606
F0.45
F-1.02
F-0.1
tp892
a(F44.5999999999996
F0.46
F-1.04
F-0.07
tp893
a(F44.6499999999996
F0.44
F-1.05
F-0.05
tp894
a(F44.6999999999996
F0.42
F-1.07
F-0.02
tp895
a(F44.749999999999595
F0.42
F-1.08
F-0.02
tp896
a(F44.79999999999959
F0.43
F-1.09
F-0.05
tp897
a(F44.84999999999959
F0.46
F-1.11
F-0.05
tp898
a(F44.89999999999959
F0.47
F-1.09
F-0.04
tp899
a(F44.949999999999584
F0.46
F-1.07
F-0.07
tp900
a(F44.99999999999958
F0.47
F-1.07
F-0.03
tp901
a(F45.04999999999958
F0.47
F-1.06
F-0.02
tp902
a(F45.099999999999575
F0.45
F-1.08
F-0.01
tp903
a(F45.14999999999957
F0.43
F-1.09
F0.01
tp904
a(F45.19999999999957
F0.38
F-1.11
F0.06
tp905
a(F45.24999999999957
F0.39
F-1.09
F0.03
tp906
a(F45.299999999999564
F0.39
F-1.08
F0.04
tp907
a(F45.34999999999956
F0.4
F-1.04
F-0.01
tp908
a(F45.39999999999956
F0.4
F-1.03
F-0.0
tp909
a(F45.449999999999555
F0.41
F-1.06
F0.01
tp910
a(F45.49999999999955
F0.4
F-1.01
F-0.04
tp911
a(F45.54999999999955
F0.39
F-1.0
F-0.06
tp912
a(F45.59999999999955
F0.38
F-1.0
F-0.04
tp913
a(F45.649999999999544
F0.37
F-0.97
F-0.05
tp914
a(F45.69999999999954
F0.38
F-0.91
F-0.15
tp915
a(F45.74999999999954
F0.41
F-0.88
F-0.15
tp916
a(F45.799999999999535
F0.46
F-0.86
F-0.11
tp917
a(F45.84999999999953
F0.45
F-0.84
F-0.07
tp918
a(F45.89999999999953
F0.49
F-0.81
F-0.12
tp919
a(F45.94999999999953
F0.45
F-0.84
F-0.05
tp920
a(F45.999999999999524
F0.48
F-0.84
F-0.07
tp921
a(F46.04999999999952
F0.47
F-0.88
F0.01
tp922
a(F46.09999999999952
F0.52
F-0.87
F-0.06
tp923
a(F46.149999999999515
F0.5
F-0.85
F-0.09
tp924
a(F46.19999999999951
F0.53
F-0.83
F-0.12
tp925
a(F46.24999999999951
F0.49
F-0.81
F-0.15
tp926
a(F46.29999999999951
F0.47
F-0.78
F-0.08
tp927
a(F46.349999999999504
F0.41
F-0.8
F-0.08
tp928
a(F46.3999999999995
F0.37
F-0.92
F-0.01
tp929
a(F46.4499999999995
F0.31
F-0.86
F-0.05
tp930
a(F46.499999999999496
F0.28
F-0.88
F-0.04
tp931
a(F46.54999999999949
F0.29
F-0.91
F-0.05
tp932
a(F46.59999999999949
F0.39
F-0.96
F-0.17
tp933
a(F46.64999999999949
F0.52
F-1.03
F-0.12
tp934
a(F46.699999999999484
F0.56
F-1.06
F-0.01
tp935
a(F46.74999999999948
F0.55
F-1.06
F0.01
tp936
a(F46.79999999999948
F0.5
F-1.04
F0.04
tp937
a(F46.849999999999476
F0.58
F-1.03
F-0.04
tp938
a(F46.89999999999947
F0.61
F-1.04
F-0.02
tp939
a(F46.94999999999947
F0.55
F-1.07
F-0.02
tp940
a(F46.99999999999947
F0.56
F-1.07
F-0.09
tp941
a(F47.049999999999464
F0.52
F-1.06
F-0.08
tp942
a(F47.09999999999946
F0.49
F-1.05
F-0.07
tp943
a(F47.14999999999946
F0.47
F-1.05
F-0.09
tp944
a(F47.199999999999456
F0.46
F-1.07
F-0.07
tp945
a(F47.24999999999945
F0.48
F-1.07
F-0.06
tp946
a(F47.29999999999945
F0.51
F-1.09
F-0.07
tp947
a(F47.34999999999945
F0.53
F-1.12
F-0.08
tp948
a(F47.399999999999444
F0.5
F-1.16
F-0.05
tp949
a(F47.44999999999944
F0.45
F-1.14
F-0.01
tp950
a(F47.49999999999944
F0.4
F-1.1
F0.01
tp951
a(F47.549999999999436
F0.41
F-1.11
F0.05
tp952
a(F47.59999999999943
F0.39
F-1.08
F0.04
tp953
a(F47.64999999999943
F0.38
F-1.08
F0.01
tp954
a(F47.69999999999943
F0.35
F-1.12
F-0.04
tp955
a(F47.749999999999424
F0.28
F-1.06
F0.07
tp956
a(F47.79999999999942
F0.32
F-0.95
F0.08
tp957
a(F47.84999999999942
F0.32
F-0.88
F0.04
tp958
a(F47.899999999999416
F0.28
F-0.93
F0.07
tp959
a(F47.94999999999941
F0.24
F-0.95
F0.1
tp960
a(F47.99999999999941
F0.4
F-0.82
F0.04
tp961
a(F48.04999999999941
F0.57
F-0.68
F-0.05
tp962
a(F48.099999999999405
F0.62
F-0.71
F-0.07
tp963
a(F48.1499999999994
F0.55
F-0.74
F-0.12
tp964
a(F48.1999999999994
F0.44
F-0.83
F-0.11
tp965
a(F48.249999999999396
F0.41
F-0.88
F-0.1
tp966
a(F48.29999999999939
F0.46
F-0.86
F-0.15
tp967
a(F48.34999999999939
F0.49
F-0.86
F-0.16
tp968
a(F48.39999999999939
F0.46
F-0.88
F-0.1
tp969
a(F48.449999999999385
F0.46
F-0.85
F-0.13
tp970
a(F48.49999999999938
F0.47
F-0.82
F-0.07
tp971
a(F48.54999999999938
F0.47
F-0.82
F-0.04
tp972
a(F48.599999999999376
F0.48
F-0.84
F-0.0
tp973
a(F48.64999999999937
F0.5
F-0.86
F-0.05
tp974
a(F48.69999999999937
F0.46
F-0.9
F0.08
tp975
a(F48.74999999999937
F0.4
F-0.87
F-0.1
tp976
a(F48.799999999999365
F0.43
F-0.91
F0.01
tp977
a(F48.84999999999936
F0.45
F-0.87
F-0.08
tp978
a(F48.89999999999936
F0.52
F-0.92
F-0.04
tp979
a(F48.949999999999356
F0.43
F-0.94
F-0.07
tp980
a(F48.99999999999935
F0.46
F-1.08
F-0.01
tp981
a(F49.04999999999935
F0.47
F-1.0
F0.05
tp982
a(F49.09999999999935
F0.56
F-0.99
F0.0
tp983
a(F49.149999999999345
F0.59
F-1.03
F0.03
tp984
a(F49.19999999999934
F0.58
F-1.11
F0.01
tp985
a(F49.24999999999934
F0.48
F-1.1
F0.02
tp986
a(F49.299999999999336
F0.44
F-1.08
F0.03
tp987
a(F49.34999999999933
F0.4
F-1.12
F0.03
tp988
a(F49.39999999999933
F0.4
F-1.1
F0.04
tp989
a(F49.44999999999933
F0.44
F-1.15
F0.06
tp990
a(F49.499999999999325
F0.47
F-1.14
F0.08
tp991
a(F49.54999999999932
F0.48
F-1.05
F0.02
tp992
a(F49.59999999999932
F0.45
F-1.04
F0.01
tp993
a(F49.64999999999932
F0.47
F-1.04
F0.02
tp994
a(F49.699999999999314
F0.46
F-1.09
F0.05
tp995
a(F49.74999999999931
F0.46
F-1.1
F0.06
tp996
a(F49.79999999999931
F0.44
F-1.12
F0.09
tp997
a(F49.849999999999305
F0.38
F-1.12
F0.09
tp998
a(F49.8999999999993
F0.35
F-1.12
F0.09
tp999
a(F49.9499999999993
F0.36
F-1.11
F0.1
tp1000
a(F49.9999999999993
F0.37
F-1.12
F0.07
tp1001
a(F50.049999999999294
F0.39
F-1.04
F0.05
tp1002
a.