(iplayer
Player
p0
(dp1
S'map'
p2
NsS'LIFE'
p3
I10
sS'open_maps'
p4
(lp5
I01
aI00
aI00
aI00
aI00
aI00
asS'game_over'
p6
I00
sS'MONEY'
p7
I100
sS'game_won'
p8
I00
sS'life'
p9
I10
sS'difficulty'
p10
S'easy'
p11
sS'quiting'
p12
I00
sS'money'
p13
I100
sb.